Archive member included to satisfy reference by file (symbol)

/usr/lib/gcc/arm-none-eabi/10.3.1/libgcc.a(_thumb1_case_sqi.o)
                              obj/iso14443b.o (__gnu_thumb1_case_sqi)
/usr/lib/gcc/arm-none-eabi/10.3.1/libgcc.a(_thumb1_case_uqi.o)
                              obj/iso15693.o (__gnu_thumb1_case_uqi)
/usr/lib/gcc/arm-none-eabi/10.3.1/libgcc.a(_thumb1_case_shi.o)
                              obj/iso14443b.o (__gnu_thumb1_case_shi)
/usr/lib/gcc/arm-none-eabi/10.3.1/libgcc.a(_thumb1_case_uhi.o)
                              obj/hitag2.o (__gnu_thumb1_case_uhi)
/usr/lib/gcc/arm-none-eabi/10.3.1/libgcc.a(_thumb1_case_si.o)
                              obj/appmain.o (__gnu_thumb1_case_si)
/usr/lib/gcc/arm-none-eabi/10.3.1/libgcc.a(_udivsi3.o)
                              obj/lfsampling.o (__aeabi_uidiv)
/usr/lib/gcc/arm-none-eabi/10.3.1/libgcc.a(_divsi3.o)
                              obj/lfops.o (__aeabi_idiv)
/usr/lib/gcc/arm-none-eabi/10.3.1/libgcc.a(_dvmd_tls.o)
                              /usr/lib/gcc/arm-none-eabi/10.3.1/libgcc.a(_udivsi3.o) (__aeabi_idiv0)
/usr/lib/gcc/arm-none-eabi/10.3.1/libgcc.a(_lshrdi3.o)
                              obj/hitag2_crypto.o (__aeabi_llsr)
/usr/lib/gcc/arm-none-eabi/10.3.1/libgcc.a(_ashldi3.o)
                              obj/hitag2_crypto.o (__aeabi_llsl)
/usr/lib/gcc/arm-none-eabi/10.3.1/libgcc.a(_ctzsi2.o)
                              obj/lz4.o (__ctzsi2)
/usr/lib/gcc/arm-none-eabi/10.3.1/libgcc.a(_aeabi_ldivmod.o)
                              obj/commonutil.o (__aeabi_ldivmod)
/usr/lib/gcc/arm-none-eabi/10.3.1/libgcc.a(_aeabi_uldivmod.o)
                              obj/printf.o (__aeabi_uldivmod)
/usr/lib/gcc/arm-none-eabi/10.3.1/libgcc.a(_muldi3.o)
                              obj/lfops.o (__aeabi_lmul)
/usr/lib/gcc/arm-none-eabi/10.3.1/libgcc.a(_paritysi2.o)
                              obj/lfdemod.o (__paritysi2)
/usr/lib/gcc/arm-none-eabi/10.3.1/libgcc.a(_bswapsi2.o)
                              obj/generator.o (__bswapsi2)
/usr/lib/gcc/arm-none-eabi/10.3.1/libgcc.a(_bswapdi2.o)
                              obj/generator.o (__bswapdi2)
/usr/lib/gcc/arm-none-eabi/10.3.1/libgcc.a(_udivmoddi4.o)
                              /usr/lib/gcc/arm-none-eabi/10.3.1/libgcc.a(_aeabi_ldivmod.o) (__udivmoddi4)
/usr/lib/gcc/arm-none-eabi/10.3.1/libgcc.a(_clzdi2.o)
                              /usr/lib/gcc/arm-none-eabi/10.3.1/libgcc.a(_udivmoddi4.o) (__clzdi2)
/usr/lib/gcc/arm-none-eabi/10.3.1/libgcc.a(_clzsi2.o)
                              /usr/lib/gcc/arm-none-eabi/10.3.1/libgcc.a(_clzdi2.o) (__clzsi2)

Discarded input sections

 .text          0x0000000000000000        0x0 obj/version_pm3.o
 .data          0x0000000000000000        0x0 obj/version_pm3.o
 .bss           0x0000000000000000        0x0 obj/version_pm3.o
 .text          0x0000000000000000        0x0 obj/fpga_version_info.o
 .data          0x0000000000000000        0x0 obj/fpga_version_info.o
 .bss           0x0000000000000000        0x0 obj/fpga_version_info.o
 .text          0x0000000000000000        0x0 obj/start.o
 .data          0x0000000000000000        0x0 obj/start.o
 .bss           0x0000000000000000        0x0 obj/start.o
 .text          0x0000000000000000        0x0 obj/iso15693.o
 .data          0x0000000000000000        0x0 obj/iso15693.o
 .bss           0x0000000000000000        0x0 obj/iso15693.o
 .text          0x0000000000000000        0x0 obj/iso15693tools.o
 .data          0x0000000000000000        0x0 obj/iso15693tools.o
 .bss           0x0000000000000000        0x0 obj/iso15693tools.o
 .text          0x0000000000000000        0x0 obj/thinfilm.o
 .data          0x0000000000000000        0x0 obj/thinfilm.o
 .bss           0x0000000000000000        0x0 obj/thinfilm.o
 .text          0x0000000000000000        0x0 obj/lfops.o
 .data          0x0000000000000000        0x0 obj/lfops.o
 .bss           0x0000000000000000        0x0 obj/lfops.o
 .text.getT55xxConfig
                0x0000000000000000        0x8 obj/lfops.o
 .text          0x0000000000000000        0x0 obj/lfsampling.o
 .data          0x0000000000000000        0x0 obj/lfsampling.o
 .bss           0x0000000000000000        0x0 obj/lfsampling.o
 .rodata.doT55x7Acquisition.str1.1
                0x0000000000000000       0x20 obj/lfsampling.o
 .text.doT55x7Acquisition
                0x0000000000000000      0x144 obj/lfsampling.o
 .text          0x0000000000000000        0x0 obj/pcf7931.o
 .data          0x0000000000000000        0x0 obj/pcf7931.o
 .bss           0x0000000000000000        0x0 obj/pcf7931.o
 .text          0x0000000000000000        0x0 obj/lfdemod.o
 .data          0x0000000000000000        0x0 obj/lfdemod.o
 .bss           0x0000000000000000        0x0 obj/lfdemod.o
 .text.findST   0x0000000000000000       0xbe obj/lfdemod.o
 .text.getSignalProperties
                0x0000000000000000        0x8 obj/lfdemod.o
 .text.parityTest
                0x0000000000000000       0x1c obj/lfdemod.o
 .text.addParity
                0x0000000000000000       0x9a obj/lfdemod.o
 .text.bits_to_array
                0x0000000000000000       0x36 obj/lfdemod.o
 .text.bytebits_to_byteLSBF
                0x0000000000000000       0x18 obj/lfdemod.o
 .rodata.loadWaveCounters.str1.1
                0x0000000000000000       0x2a obj/lfdemod.o
 .text.loadWaveCounters
                0x0000000000000000       0xd4 obj/lfdemod.o
 .rodata.pskFindFirstPhaseShift.str1.1
                0x0000000000000000       0x28 obj/lfdemod.o
 .text.pskFindFirstPhaseShift
                0x0000000000000000       0xa4 obj/lfdemod.o
 .text.ManchesterEncode
                0x0000000000000000       0x40 obj/lfdemod.o
 .rodata.DetectStrongNRZClk.str1.1
                0x0000000000000000       0x30 obj/lfdemod.o
 .text.DetectStrongNRZClk
                0x0000000000000000       0xec obj/lfdemod.o
 .rodata.DetectNRZClock.str1.1
                0x0000000000000000       0xb7 obj/lfdemod.o
 .text.DetectNRZClock
                0x0000000000000000      0x2b4 obj/lfdemod.o
 .rodata.countFC.str1.1
                0x0000000000000000       0x71 obj/lfdemod.o
 .text.countFC  0x0000000000000000      0x1c8 obj/lfdemod.o
 .rodata.DetectPSKClock.str1.1
                0x0000000000000000       0xef obj/lfdemod.o
 .text.DetectPSKClock
                0x0000000000000000      0x27c obj/lfdemod.o
 .rodata.detectFSKClk.str1.1
                0x0000000000000000       0x9c obj/lfdemod.o
 .text.detectFSKClk
                0x0000000000000000      0x238 obj/lfdemod.o
 .rodata.DetectST.str1.1
                0x0000000000000000      0x1ee obj/lfdemod.o
 .text.DetectST
                0x0000000000000000      0x388 obj/lfdemod.o
 .text.BiphaseRawDecode
                0x0000000000000000       0xe4 obj/lfdemod.o
 .rodata.nrzRawDemod.str1.1
                0x0000000000000000       0x49 obj/lfdemod.o
 .text.nrzRawDemod
                0x0000000000000000      0x13c obj/lfdemod.o
 .text.psk1TOpsk2
                0x0000000000000000       0x2a obj/lfdemod.o
 .text.psk2TOpsk1
                0x0000000000000000       0x18 obj/lfdemod.o
 .rodata.pskRawDemod_ext.str1.1
                0x0000000000000000       0x64 obj/lfdemod.o
 .text.pskRawDemod_ext
                0x0000000000000000      0x1f4 obj/lfdemod.o
 .text.pskRawDemod
                0x0000000000000000       0x16 obj/lfdemod.o
 .text          0x0000000000000000        0x0 obj/lfadc.o
 .data          0x0000000000000000        0x0 obj/lfadc.o
 .bss           0x0000000000000000        0x0 obj/lfadc.o
 .text.lf_test_periods
                0x0000000000000000       0x24 obj/lfadc.o
 .text.get_adc_avg
                0x0000000000000000        0xc obj/lfadc.o
 .text.lf_detect_gap
                0x0000000000000000       0x10 obj/lfadc.o
 .text.lf_reset_counter
                0x0000000000000000       0x18 obj/lfadc.o
 .text.lf_detect_field_drop
                0x0000000000000000        0x4 obj/lfadc.o
 .text          0x0000000000000000        0x0 obj/lz4.o
 .data          0x0000000000000000        0x0 obj/lz4.o
 .bss           0x0000000000000000        0x0 obj/lz4.o
 .text.LZ4_renormDictT
                0x0000000000000000       0x4c obj/lz4.o
 .text.LZ4_versionNumber
                0x0000000000000000        0x8 obj/lz4.o
 .rodata.LZ4_versionString.str1.1
                0x0000000000000000        0x6 obj/lz4.o
 .text.LZ4_versionString
                0x0000000000000000        0x8 obj/lz4.o
 .text.LZ4_compressBound
                0x0000000000000000       0x20 obj/lz4.o
 .text.LZ4_sizeofState
                0x0000000000000000        0x6 obj/lz4.o
 .text.LZ4_compress_fast_extState_fastReset
                0x0000000000000000     0x1a14 obj/lz4.o
 .text.LZ4_initStream
                0x0000000000000000       0x28 obj/lz4.o
 .text.LZ4_compress_fast_extState
                0x0000000000000000     0x116c obj/lz4.o
 .text.LZ4_compress_fast
                0x0000000000000000       0x1e obj/lz4.o
 .text.LZ4_compress_default
                0x0000000000000000       0x10 obj/lz4.o
 .text.LZ4_compress_destSize
                0x0000000000000000      0x9d0 obj/lz4.o
 .text.LZ4_createStream
                0x0000000000000000       0x1e obj/lz4.o
 .text.LZ4_resetStream
                0x0000000000000000       0x12 obj/lz4.o
 .text.LZ4_resetStream_fast
                0x0000000000000000       0x48 obj/lz4.o
 .text.LZ4_freeStream
                0x0000000000000000       0x12 obj/lz4.o
 .text.LZ4_loadDict
                0x0000000000000000       0x7c obj/lz4.o
 .text.LZ4_attach_dictionary
                0x0000000000000000       0x22 obj/lz4.o
 .text.LZ4_compress_fast_continue
                0x0000000000000000     0x224c obj/lz4.o
 .text.LZ4_compress_forceExtDict
                0x0000000000000000      0xbe4 obj/lz4.o
 .text.LZ4_saveDict
                0x0000000000000000       0x36 obj/lz4.o
 .text.LZ4_decompress_safe_partial
                0x0000000000000000       0x2a obj/lz4.o
 .text.LZ4_decompress_fast
                0x0000000000000000       0x2c obj/lz4.o
 .text.LZ4_decompress_fast_withPrefix64k
                0x0000000000000000        0xc obj/lz4.o
 .text.LZ4_createStreamDecode
                0x0000000000000000       0x10 obj/lz4.o
 .text.LZ4_freeStreamDecode
                0x0000000000000000        0xc obj/lz4.o
 .text.LZ4_decoderRingBufferSize
                0x0000000000000000       0x20 obj/lz4.o
 .text.LZ4_decompress_fast_continue
                0x0000000000000000       0x98 obj/lz4.o
 .text.LZ4_decompress_safe_usingDict
                0x0000000000000000       0x50 obj/lz4.o
 .text.LZ4_decompress_fast_usingDict
                0x0000000000000000       0x36 obj/lz4.o
 .text.LZ4_compress_limitedOutput
                0x0000000000000000        0xc obj/lz4.o
 .text.LZ4_compress
                0x0000000000000000       0x20 obj/lz4.o
 .text.LZ4_compress_limitedOutput_withState
                0x0000000000000000       0x14 obj/lz4.o
 .text.LZ4_compress_withState
                0x0000000000000000       0x28 obj/lz4.o
 .text.LZ4_compress_limitedOutput_continue
                0x0000000000000000       0x14 obj/lz4.o
 .text.LZ4_compress_continue
                0x0000000000000000       0x28 obj/lz4.o
 .text.LZ4_uncompress
                0x0000000000000000        0xc obj/lz4.o
 .text.LZ4_uncompress_unknownOutputSize
                0x0000000000000000        0xc obj/lz4.o
 .text.LZ4_sizeofStreamState
                0x0000000000000000        0x6 obj/lz4.o
 .text.LZ4_resetStreamState
                0x0000000000000000        0xe obj/lz4.o
 .text.LZ4_create
                0x0000000000000000        0xc obj/lz4.o
 .text.LZ4_slideInputBuffer
                0x0000000000000000        0x6 obj/lz4.o
 .text          0x0000000000000000        0x0 obj/legicrf.o
 .data          0x0000000000000000        0x0 obj/legicrf.o
 .bss           0x0000000000000000        0x0 obj/legicrf.o
 .text.getLegicCardInfo
                0x0000000000000000        0x8 obj/legicrf.o
 .text.LegicRfReaderEx
                0x0000000000000000       0x90 obj/legicrf.o
 .text          0x0000000000000000        0x0 obj/legicrfsim.o
 .data          0x0000000000000000        0x0 obj/legicrfsim.o
 .bss           0x0000000000000000        0x0 obj/legicrfsim.o
 .text          0x0000000000000000        0x0 obj/legic_prng.o
 .data          0x0000000000000000        0x0 obj/legic_prng.o
 .bss           0x0000000000000000        0x0 obj/legic_prng.o
 .text.legic_prng_get_bits
                0x0000000000000000       0x26 obj/legic_prng.o
 .text          0x0000000000000000        0x0 obj/flashmem.o
 .data          0x0000000000000000        0x0 obj/flashmem.o
 .bss           0x0000000000000000        0x0 obj/flashmem.o
 .rodata.Flash_WriteData.str1.1
                0x0000000000000000       0x50 obj/flashmem.o
 .text.Flash_WriteData
                0x0000000000000000       0xb0 obj/flashmem.o
 .text          0x0000000000000000        0x0 obj/i2c.o
 .data          0x0000000000000000        0x0 obj/i2c.o
 .bss           0x0000000000000000        0x0 obj/i2c.o
 .text.GetATR   0x0000000000000000       0x16 obj/i2c.o
 .text          0x0000000000000000        0x0 obj/hitag2_crypto.o
 .data          0x0000000000000000        0x0 obj/hitag2_crypto.o
 .bss           0x0000000000000000        0x0 obj/hitag2_crypto.o
 .text.hitag2_cipher_reset
                0x0000000000000000      0x600 obj/hitag2_crypto.o
 .text.hitag2_cipher_authenticate
                0x0000000000000000       0x42 obj/hitag2_crypto.o
 .text          0x0000000000000000        0x0 obj/hitag2.o
 .data          0x0000000000000000        0x0 obj/hitag2.o
 .bss           0x0000000000000000        0x0 obj/hitag2.o
 .text.EloadHitag
                0x0000000000000000       0x18 obj/hitag2.o
 .text          0x0000000000000000        0x0 obj/hitagS.o
 .data          0x0000000000000000        0x0 obj/hitagS.o
 .bss           0x0000000000000000        0x0 obj/hitagS.o
 .text          0x0000000000000000        0x0 obj/em4x50.o
 .data          0x0000000000000000        0x0 obj/em4x50.o
 .bss           0x0000000000000000        0x0 obj/em4x50.o
 .text          0x0000000000000000        0x0 obj/em4x70.o
 .data          0x0000000000000000        0x0 obj/em4x70.o
 .bss           0x0000000000000000        0x0 obj/em4x70.o
 .text          0x0000000000000000        0x0 obj/spiffs.o
 .data          0x0000000000000000        0x0 obj/spiffs.o
 .bss           0x0000000000000000        0x0 obj/spiffs.o
 .text.rdv40_spiffs_stat
                0x0000000000000000       0x32 obj/spiffs.o
 .text          0x0000000000000000        0x0 obj/spiffs_cache.o
 .data          0x0000000000000000        0x0 obj/spiffs_cache.o
 .bss           0x0000000000000000        0x0 obj/spiffs_cache.o
 .text          0x0000000000000000        0x0 obj/spiffs_check.o
 .data          0x0000000000000000        0x0 obj/spiffs_check.o
 .bss           0x0000000000000000        0x0 obj/spiffs_check.o
 .text          0x0000000000000000        0x0 obj/spiffs_gc.o
 .data          0x0000000000000000        0x0 obj/spiffs_gc.o
 .bss           0x0000000000000000        0x0 obj/spiffs_gc.o
 .text          0x0000000000000000        0x0 obj/spiffs_nucleus.o
 .data          0x0000000000000000        0x0 obj/spiffs_nucleus.o
 .bss           0x0000000000000000        0x0 obj/spiffs_nucleus.o
 .text.spiffs_populate_ix_map_v
                0x0000000000000000       0xdc obj/spiffs_nucleus.o
 .text.spiffs_populate_ix_map
                0x0000000000000000       0xb0 obj/spiffs_nucleus.o
 .text.spiffs_object_open_by_id
                0x0000000000000000       0x42 obj/spiffs_nucleus.o
 .text          0x0000000000000000        0x0 obj/spiffs_hydrogen.o
 .data          0x0000000000000000        0x0 obj/spiffs_hydrogen.o
 .bss           0x0000000000000000        0x0 obj/spiffs_hydrogen.o
 .text.SPIFFS_mounted
                0x0000000000000000        0xa obj/spiffs_hydrogen.o
 .text.SPIFFS_format
                0x0000000000000000       0x60 obj/spiffs_hydrogen.o
 .text.SPIFFS_creat
                0x0000000000000000       0x74 obj/spiffs_hydrogen.o
 .text.SPIFFS_open_by_dirent
                0x0000000000000000       0x90 obj/spiffs_hydrogen.o
 .text.SPIFFS_open_by_page
                0x0000000000000000       0xcc obj/spiffs_hydrogen.o
 .text.SPIFFS_lseek
                0x0000000000000000       0xd8 obj/spiffs_hydrogen.o
 .text.SPIFFS_fremove
                0x0000000000000000       0x64 obj/spiffs_hydrogen.o
 .text.SPIFFS_fstat
                0x0000000000000000       0x58 obj/spiffs_hydrogen.o
 .text.SPIFFS_fflush
                0x0000000000000000       0x3c obj/spiffs_hydrogen.o
 .text.SPIFFS_eof
                0x0000000000000000       0x5c obj/spiffs_hydrogen.o
 .text.SPIFFS_tell
                0x0000000000000000       0x50 obj/spiffs_hydrogen.o
 .text.SPIFFS_set_file_callback_func
                0x0000000000000000        0x6 obj/spiffs_hydrogen.o
 .text.SPIFFS_ix_map
                0x0000000000000000       0xa4 obj/spiffs_hydrogen.o
 .text.SPIFFS_ix_unmap
                0x0000000000000000       0x50 obj/spiffs_hydrogen.o
 .text.SPIFFS_ix_remap
                0x0000000000000000       0xf8 obj/spiffs_hydrogen.o
 .text.SPIFFS_bytes_to_ix_map_entries
                0x0000000000000000       0x2c obj/spiffs_hydrogen.o
 .text.SPIFFS_ix_map_entries_to_bytes
                0x0000000000000000       0x24 obj/spiffs_hydrogen.o
 .text          0x0000000000000000        0x0 obj/hfops.o
 .data          0x0000000000000000        0x0 obj/hfops.o
 .bss           0x0000000000000000        0x0 obj/hfops.o
 .text          0x0000000000000000        0x0 obj/iso14443a.o
 .data          0x0000000000000000        0x0 obj/iso14443a.o
 .bss           0x0000000000000000        0x0 obj/iso14443a.o
 .text.iso14a_set_trigger
                0x0000000000000000        0xc obj/iso14443a.o
 .text.Uart14aInit
                0x0000000000000000       0x18 obj/iso14443a.o
 .text.GetDemod14a
                0x0000000000000000        0x8 obj/iso14443a.o
 .text.Demod14aInit
                0x0000000000000000       0x18 obj/iso14443a.o
 .text          0x0000000000000000        0x0 obj/mifareutil.o
 .data          0x0000000000000000        0x0 obj/mifareutil.o
 .bss           0x0000000000000000        0x0 obj/mifareutil.o
 .text.mf_crypto1_decrypt
                0x0000000000000000        0xe obj/mifareutil.o
 .rodata.mifare_sendcmd_special.str1.1
                0x0000000000000000       0x25 obj/mifareutil.o
 .text.mifare_sendcmd_special
                0x0000000000000000       0x64 obj/mifareutil.o
 .text.mifare_sendcmd_special2
                0x0000000000000000       0x74 obj/mifareutil.o
 .rodata.mifare_desfire_des_auth1.str1.1
                0x0000000000000000       0x39 obj/mifareutil.o
 .text.mifare_desfire_des_auth1
                0x0000000000000000       0xb8 obj/mifareutil.o
 .rodata.mifare_desfire_des_auth2.str1.1
                0x0000000000000000       0x4b obj/mifareutil.o
 .text.mifare_desfire_des_auth2
                0x0000000000000000       0xd0 obj/mifareutil.o
 .text          0x0000000000000000        0x0 obj/mifarecmd.o
 .data          0x0000000000000000        0x0 obj/mifarecmd.o
 .bss           0x0000000000000000        0x0 obj/mifarecmd.o
 .rodata.Mifare_DES_Auth1.str1.1
                0x0000000000000000       0x2c obj/mifarecmd.o
 .text.Mifare_DES_Auth1
                0x0000000000000000       0xbc obj/mifarecmd.o
 .rodata.Mifare_DES_Auth2.str1.1
                0x0000000000000000       0x2d obj/mifarecmd.o
 .text.Mifare_DES_Auth2
                0x0000000000000000       0xa0 obj/mifarecmd.o
 .text          0x0000000000000000        0x0 obj/epa.o
 .data          0x0000000000000000        0x0 obj/epa.o
 .bss           0x0000000000000000        0x0 obj/epa.o
 .text          0x0000000000000000        0x0 obj/mifaresim.o
 .data          0x0000000000000000        0x0 obj/mifaresim.o
 .bss           0x0000000000000000        0x0 obj/mifaresim.o
 .text          0x0000000000000000        0x0 obj/iso14443b.o
 .data          0x0000000000000000        0x0 obj/iso14443b.o
 .bss           0x0000000000000000        0x0 obj/iso14443b.o
 .text          0x0000000000000000        0x0 obj/crypto1.o
 .data          0x0000000000000000        0x0 obj/crypto1.o
 .bss           0x0000000000000000        0x0 obj/crypto1.o
 .text.crypto1_get_lfsr
                0x0000000000000000       0x60 obj/crypto1.o
 .text          0x0000000000000000        0x0 obj/des.o
 .data          0x0000000000000000        0x0 obj/des.o
 .bss           0x0000000000000000        0x0 obj/des.o
 .text.mbedtls_des_init
                0x0000000000000000       0x10 obj/des.o
 .text.mbedtls_des_free
                0x0000000000000000       0x12 obj/des.o
 .text.mbedtls_des3_init
                0x0000000000000000       0x12 obj/des.o
 .text.mbedtls_des3_free
                0x0000000000000000       0x14 obj/des.o
 .text.mbedtls_des_key_set_parity
                0x0000000000000000       0x1c obj/des.o
 .text.mbedtls_des_key_check_key_parity
                0x0000000000000000       0x28 obj/des.o
 .text.mbedtls_des_key_check_weak
                0x0000000000000000       0x30 obj/des.o
 .text.mbedtls_des_crypt_cbc
                0x0000000000000000       0xa2 obj/des.o
 .text.mbedtls_des3_crypt_cbc
                0x0000000000000000       0xa2 obj/des.o
 .rodata.mbedtls_des_self_test.str1.1
                0x0000000000000000       0x48 obj/des.o
 .text.mbedtls_des_self_test
                0x0000000000000000      0x28c obj/des.o
 .rodata.des3_test_buf
                0x0000000000000000        0x8 obj/des.o
 .rodata.des3_test_cbc_dec
                0x0000000000000000       0x18 obj/des.o
 .rodata.des3_test_cbc_enc
                0x0000000000000000       0x18 obj/des.o
 .rodata.des3_test_ecb_dec
                0x0000000000000000       0x18 obj/des.o
 .rodata.des3_test_ecb_enc
                0x0000000000000000       0x18 obj/des.o
 .rodata.des3_test_iv
                0x0000000000000000        0x8 obj/des.o
 .rodata.des3_test_keys
                0x0000000000000000       0x18 obj/des.o
 .rodata.odd_parity_table
                0x0000000000000000       0x80 obj/des.o
 .rodata.weak_key_table
                0x0000000000000000       0x80 obj/des.o
 .text          0x0000000000000000        0x0 obj/desfire_crypto.o
 .data          0x0000000000000000        0x0 obj/desfire_crypto.o
 .bss           0x0000000000000000        0x0 obj/desfire_crypto.o
 .text.xor      0x0000000000000000       0x1a obj/desfire_crypto.o
 .text.des_encrypt
                0x0000000000000000       0x24 obj/desfire_crypto.o
 .text.Desfire_3des_key_new
                0x0000000000000000       0x46 obj/desfire_crypto.o
 .text.Desfire_key_get_version
                0x0000000000000000       0x26 obj/desfire_crypto.o
 .text.Desfire_key_set_version
                0x0000000000000000       0x42 obj/desfire_crypto.o
 .text.key_block_size
                0x0000000000000000       0x10 obj/desfire_crypto.o
 .text.padded_data_length
                0x0000000000000000       0x28 obj/desfire_crypto.o
 .text.maced_data_length
                0x0000000000000000       0x10 obj/desfire_crypto.o
 .text.enciphered_data_length
                0x0000000000000000       0x3c obj/desfire_crypto.o
 .text.mifare_cypher_single_block
                0x0000000000000000      0x130 obj/desfire_crypto.o
 .text.mifare_cypher_blocks_chained
                0x0000000000000000       0x72 obj/desfire_crypto.o
 .text.cmac_generate_subkeys
                0x0000000000000000       0xc6 obj/desfire_crypto.o
 .text.cmac     0x0000000000000000       0x92 obj/desfire_crypto.o
 .text.mifare_cryto_preprocess_data
                0x0000000000000000      0x1aa obj/desfire_crypto.o
 .rodata.mifare_cryto_postprocess_data.str1.1
                0x0000000000000000       0x1f obj/desfire_crypto.o
 .text.mifare_cryto_postprocess_data
                0x0000000000000000      0x2a0 obj/desfire_crypto.o
 .bss.actx      0x0000000000000000      0x118 obj/desfire_crypto.o
 .text          0x0000000000000000        0x0 obj/mifaredesfire.o
 .data          0x0000000000000000        0x0 obj/mifaredesfire.o
 .bss           0x0000000000000000        0x0 obj/mifaredesfire.o
 .text          0x0000000000000000        0x0 obj/aes.o
 .data          0x0000000000000000        0x0 obj/aes.o
 .bss           0x0000000000000000        0x0 obj/aes.o
 .text.mbedtls_gf128mul_x_ble
                0x0000000000000000       0xd6 obj/aes.o
 .text.mbedtls_aes_xts_init
                0x0000000000000000       0x18 obj/aes.o
 .text.mbedtls_aes_xts_free
                0x0000000000000000       0x1a obj/aes.o
 .text.mbedtls_aes_xts_setkey_enc
                0x0000000000000000       0x40 obj/aes.o
 .text.mbedtls_aes_xts_setkey_dec
                0x0000000000000000       0x40 obj/aes.o
 .text.mbedtls_aes_encrypt
                0x0000000000000000        0xc obj/aes.o
 .text.mbedtls_aes_decrypt
                0x0000000000000000        0xc obj/aes.o
 .text.mbedtls_aes_crypt_xts
                0x0000000000000000      0x120 obj/aes.o
 .text.mbedtls_aes_crypt_cfb128
                0x0000000000000000       0x84 obj/aes.o
 .text.mbedtls_aes_crypt_cfb8
                0x0000000000000000       0x62 obj/aes.o
 .text.mbedtls_aes_crypt_ofb
                0x0000000000000000       0x60 obj/aes.o
 .text.mbedtls_aes_crypt_ctr
                0x0000000000000000       0x76 obj/aes.o
 .rodata.mbedtls_aes_self_test.str1.1
                0x0000000000000000       0xa4 obj/aes.o
 .text.mbedtls_aes_self_test
                0x0000000000000000      0x5cc obj/aes.o
 .rodata.aes_test_cbc_dec
                0x0000000000000000       0x30 obj/aes.o
 .rodata.aes_test_cbc_enc
                0x0000000000000000       0x30 obj/aes.o
 .rodata.aes_test_cfb128_ct
                0x0000000000000000       0xc0 obj/aes.o
 .rodata.aes_test_cfb128_iv
                0x0000000000000000       0x10 obj/aes.o
 .rodata.aes_test_cfb128_key
                0x0000000000000000       0x60 obj/aes.o
 .rodata.aes_test_cfb128_pt
                0x0000000000000000       0x40 obj/aes.o
 .rodata.aes_test_ctr_ct
                0x0000000000000000       0x90 obj/aes.o
 .rodata.aes_test_ctr_key
                0x0000000000000000       0x30 obj/aes.o
 .rodata.aes_test_ctr_len
                0x0000000000000000        0xc obj/aes.o
 .rodata.aes_test_ctr_nonce_counter
                0x0000000000000000       0x30 obj/aes.o
 .rodata.aes_test_ctr_pt
                0x0000000000000000       0x90 obj/aes.o
 .rodata.aes_test_ecb_dec
                0x0000000000000000       0x30 obj/aes.o
 .rodata.aes_test_ecb_enc
                0x0000000000000000       0x30 obj/aes.o
 .rodata.aes_test_ofb_ct
                0x0000000000000000       0xc0 obj/aes.o
 .rodata.aes_test_ofb_iv
                0x0000000000000000       0x10 obj/aes.o
 .rodata.aes_test_ofb_key
                0x0000000000000000       0x60 obj/aes.o
 .rodata.aes_test_ofb_pt
                0x0000000000000000       0x40 obj/aes.o
 .rodata.aes_test_xts_ct32
                0x0000000000000000       0x60 obj/aes.o
 .rodata.aes_test_xts_data_unit
                0x0000000000000000       0x30 obj/aes.o
 .rodata.aes_test_xts_key
                0x0000000000000000       0x60 obj/aes.o
 .rodata.aes_test_xts_pt32
                0x0000000000000000       0x60 obj/aes.o
 .text          0x0000000000000000        0x0 obj/platform_util.o
 .data          0x0000000000000000        0x0 obj/platform_util.o
 .bss           0x0000000000000000        0x0 obj/platform_util.o
 .text          0x0000000000000000        0x0 obj/iclass.o
 .data          0x0000000000000000        0x0 obj/iclass.o
 .bss           0x0000000000000000        0x0 obj/iclass.o
 .text.iclass_read_block
                0x0000000000000000       0x6c obj/iclass.o
 .text          0x0000000000000000        0x0 obj/optimized_cipherutils.o
 .data          0x0000000000000000        0x0 obj/optimized_cipherutils.o
 .bss           0x0000000000000000        0x0 obj/optimized_cipherutils.o
 .text.headBit  0x0000000000000000       0x18 obj/optimized_cipherutils.o
 .text.x_num_to_bytes
                0x0000000000000000       0x18 obj/optimized_cipherutils.o
 .text.reverse_arraybytes
                0x0000000000000000       0x1c obj/optimized_cipherutils.o
 .text          0x0000000000000000        0x0 obj/optimized_ikeys.o
 .data          0x0000000000000000        0x0 obj/optimized_ikeys.o
 .bss           0x0000000000000000        0x0 obj/optimized_ikeys.o
 .text          0x0000000000000000        0x0 obj/optimized_elite.o
 .data          0x0000000000000000        0x0 obj/optimized_elite.o
 .bss           0x0000000000000000        0x0 obj/optimized_elite.o
 .text.permutekey
                0x0000000000000000       0x6c obj/optimized_elite.o
 .text          0x0000000000000000        0x0 obj/optimized_cipher.o
 .data          0x0000000000000000        0x0 obj/optimized_cipher.o
 .bss           0x0000000000000000        0x0 obj/optimized_cipher.o
 .text.opt_doReaderMAC_2
                0x0000000000000000       0x26 obj/optimized_cipher.o
 .text.opt_doTagMAC
                0x0000000000000000       0x44 obj/optimized_cipher.o
 .text          0x0000000000000000        0x0 obj/crc.o
 .data          0x0000000000000000        0x0 obj/crc.o
 .bss           0x0000000000000000        0x0 obj/crc.o
 .text.CRC8Maxim
                0x0000000000000000       0x3e obj/crc.o
 .text.CRC8Mad  0x0000000000000000       0x3e obj/crc.o
 .text.CRC4Legic
                0x0000000000000000       0x4e obj/crc.o
 .text.CRC8Cardx
                0x0000000000000000       0x3e obj/crc.o
 .text.CRC8Hitag1
                0x0000000000000000       0x3e obj/crc.o
 .text          0x0000000000000000        0x0 obj/crc16.o
 .data          0x0000000000000000        0x0 obj/crc16.o
 .bss           0x0000000000000000        0x0 obj/crc16.o
 .text.Crc16    0x0000000000000000       0x74 obj/crc16.o
 .text.Crc16ex  0x0000000000000000       0x78 obj/crc16.o
 .text.crc16_legic
                0x0000000000000000       0x16 obj/crc16.o
 .text          0x0000000000000000        0x0 obj/crc32.o
 .data          0x0000000000000000        0x0 obj/crc32.o
 .bss           0x0000000000000000        0x0 obj/crc32.o
 .text.crc32_ex
                0x0000000000000000       0x44 obj/crc32.o
 .text.crc32_append
                0x0000000000000000        0xe obj/crc32.o
 .comment       0x0000000000000000       0x34 obj/crc32.o
 .ARM.attributes
                0x0000000000000000       0x2a obj/crc32.o
 .text          0x0000000000000000        0x0 obj/felica.o
 .data          0x0000000000000000        0x0 obj/felica.o
 .bss           0x0000000000000000        0x0 obj/felica.o
 .text          0x0000000000000000        0x0 obj/lf_samyrun.o
 .data          0x0000000000000000        0x0 obj/lf_samyrun.o
 .bss           0x0000000000000000        0x0 obj/lf_samyrun.o
 .text          0x0000000000000000        0x0 obj/lfzx.o
 .data          0x0000000000000000        0x0 obj/lfzx.o
 .bss           0x0000000000000000        0x0 obj/lfzx.o
 .text          0x0000000000000000        0x0 obj/appmain.o
 .data          0x0000000000000000        0x0 obj/appmain.o
 .bss           0x0000000000000000        0x0 obj/appmain.o
 .text          0x0000000000000000        0x0 obj/printf.o
 .data          0x0000000000000000        0x0 obj/printf.o
 .bss           0x0000000000000000        0x0 obj/printf.o
 .text.vsprintf
                0x0000000000000000       0x16 obj/printf.o
 .text          0x0000000000000000        0x0 obj/dbprint.o
 .data          0x0000000000000000        0x0 obj/dbprint.o
 .bss           0x0000000000000000        0x0 obj/dbprint.o
 .text.DbprintfEx
                0x0000000000000000       0x42 obj/dbprint.o
 .text          0x0000000000000000        0x0 obj/commonutil.o
 .data          0x0000000000000000        0x0 obj/commonutil.o
 .bss           0x0000000000000000        0x0 obj/commonutil.o
 .text.format_version_information_short
                0x0000000000000000       0xa8 obj/commonutil.o
 .text.MemLeToUint2byte
                0x0000000000000000        0xe obj/commonutil.o
 .text.MemLeToUint3byte
                0x0000000000000000       0x12 obj/commonutil.o
 .text.MemLeToUint4byte
                0x0000000000000000       0x18 obj/commonutil.o
 .text.MemBeToUint2byte
                0x0000000000000000        0xe obj/commonutil.o
 .text.MemBeToUint3byte
                0x0000000000000000       0x12 obj/commonutil.o
 .text.MemBeToUint4byte
                0x0000000000000000       0x18 obj/commonutil.o
 .text.Uint2byteToMemLe
                0x0000000000000000        0x8 obj/commonutil.o
 .text.Uint3byteToMemLe
                0x0000000000000000        0xc obj/commonutil.o
 .text.Uint4byteToMemLe
                0x0000000000000000       0x10 obj/commonutil.o
 .text.Uint2byteToMemBe
                0x0000000000000000        0x8 obj/commonutil.o
 .text.Uint3byteToMemBe
                0x0000000000000000        0xc obj/commonutil.o
 .text.lsl      0x0000000000000000       0x2a obj/commonutil.o
 .text.rotl     0x0000000000000000        0xc obj/commonutil.o
 .text.rotr     0x0000000000000000        0x8 obj/commonutil.o
 .text.get_sw   0x0000000000000000       0x1e obj/commonutil.o
 .text.reverse_array
                0x0000000000000000       0x32 obj/commonutil.o
 .text.reverse_array_copy
                0x0000000000000000       0x26 obj/commonutil.o
 .text          0x0000000000000000        0x0 obj/util.o
 .data          0x0000000000000000        0x0 obj/util.o
 .bss           0x0000000000000000        0x0 obj/util.o
 .text.hex2int  0x0000000000000000       0x18 obj/util.o
 .text.LED      0x0000000000000000       0xa4 obj/util.o
 .rodata.BUTTON_CLICKED.str1.1
                0x0000000000000000       0x35 obj/util.o
 .text.BUTTON_CLICKED
                0x0000000000000000       0xd4 obj/util.o
 .rodata.CSWTCH.20
                0x0000000000000000       0x36 obj/util.o
 .text          0x0000000000000000        0x0 obj/string.o
 .data          0x0000000000000000        0x0 obj/string.o
 .bss           0x0000000000000000        0x0 obj/string.o
 .text.memxor   0x0000000000000000       0x1a obj/string.o
 .text.strreverse
                0x0000000000000000       0x24 obj/string.o
 .text.itoa     0x0000000000000000       0x5e obj/string.o
 .text.strchr   0x0000000000000000       0x16 obj/string.o
 .text.strspn   0x0000000000000000       0x24 obj/string.o
 .text.strrchr  0x0000000000000000       0x18 obj/string.o
 .text.strcspn  0x0000000000000000       0x24 obj/string.o
 .text.strpbrk  0x0000000000000000       0x26 obj/string.o
 .text.strncmp  0x0000000000000000       0x20 obj/string.o
 .text.strtoul  0x0000000000000000       0x96 obj/string.o
 .text.strtol   0x0000000000000000       0xb2 obj/string.o
 .text.c_tolower
                0x0000000000000000       0x14 obj/string.o
 .text.c_isprint
                0x0000000000000000       0x12 obj/string.o
 .text          0x0000000000000000        0x0 obj/BigBuf.o
 .data          0x0000000000000000        0x0 obj/BigBuf.o
 .bss           0x0000000000000000        0x0 obj/BigBuf.o
 .text          0x0000000000000000        0x0 obj/ticks.o
 .data          0x0000000000000000        0x0 obj/ticks.o
 .bss           0x0000000000000000        0x0 obj/ticks.o
 .text          0x0000000000000000        0x0 obj/clocks.o
 .data          0x0000000000000000        0x0 obj/clocks.o
 .bss           0x0000000000000000        0x0 obj/clocks.o
 .text          0x0000000000000000        0x0 obj/hfsnoop.o
 .data          0x0000000000000000        0x0 obj/hfsnoop.o
 .bss           0x0000000000000000        0x0 obj/hfsnoop.o
 .text          0x0000000000000000        0x0 obj/generator.o
 .data          0x0000000000000000        0x0 obj/generator.o
 .bss           0x0000000000000000        0x0 obj/generator.o
 .text.transform_D
                0x0000000000000000       0xb8 obj/generator.o
 .text.ul_ev1_pwdgenA
                0x0000000000000000       0x8c obj/generator.o
 .text.ul_ev1_pwdgenC
                0x0000000000000000       0x54 obj/generator.o
 .text.ul_ev1_pwdgenD
                0x0000000000000000       0x6c obj/generator.o
 .text.ul_ev1_pwdgenE
                0x0000000000000000       0x54 obj/generator.o
 .text.ul_ev1_pwdgenF
                0x0000000000000000       0x2a obj/generator.o
 .text.ul_ev1_packgenA
                0x0000000000000000       0x16 obj/generator.o
 .text.ul_ev1_packgenB
                0x0000000000000000        0x8 obj/generator.o
 .text.ul_ev1_packgenC
                0x0000000000000000        0x8 obj/generator.o
 .text.ul_ev1_packgenD
                0x0000000000000000       0x68 obj/generator.o
 .text.ul_ev1_packgenE
                0x0000000000000000       0x14 obj/generator.o
 .text.ul_ev1_pwdgen_def
                0x0000000000000000        0x6 obj/generator.o
 .text.ul_ev1_packgen_def
                0x0000000000000000        0x4 obj/generator.o
 .text.ul_c_otpgenA
                0x0000000000000000        0x8 obj/generator.o
 .text.mfc_algo_ving_one
                0x0000000000000000       0x18 obj/generator.o
 .text.mfc_algo_ving_all
                0x0000000000000000       0x40 obj/generator.o
 .text.mfc_algo_yale_one
                0x0000000000000000       0x1c obj/generator.o
 .text.mfc_algo_yale_all
                0x0000000000000000        0xc obj/generator.o
 .text.mfc_algo_saflok_one
                0x0000000000000000        0xc obj/generator.o
 .text.mfc_algo_saflok_all
                0x0000000000000000        0xc obj/generator.o
 .text.mfc_algo_mizip_one
                0x0000000000000000      0x100 obj/generator.o
 .text.mfc_algo_mizip_all
                0x0000000000000000       0x5a obj/generator.o
 .text.mfc_algo_di_one
                0x0000000000000000       0xfa obj/generator.o
 .text.mfc_algo_di_all
                0x0000000000000000       0x5a obj/generator.o
 .text.mfc_algo_sky_one
                0x0000000000000000       0xe4 obj/generator.o
 .text.mfc_algo_sky_all
                0x0000000000000000       0x5a obj/generator.o
 .text.lf_t55xx_white_pwdgen
                0x0000000000000000       0x38 obj/generator.o
 .rodata.mfdes_kdf_input_gallagher.str1.1
                0x0000000000000000       0x12 obj/generator.o
 .text.mfdes_kdf_input_gallagher
                0x0000000000000000       0x80 obj/generator.o
 .text.mfc_generate4b_nuid
                0x0000000000000000       0x56 obj/generator.o
 .text.mfc_algo_touch_one
                0x0000000000000000       0x40 obj/generator.o
 .text.generator_selftest
                0x0000000000000000        0x4 obj/generator.o
 .rodata        0x0000000000000000      0x150 obj/generator.o
 .text          0x0000000000000000        0x0 obj/fpgaloader.o
 .data          0x0000000000000000        0x0 obj/fpgaloader.o
 .bss           0x0000000000000000        0x0 obj/fpgaloader.o
 .text.FpgaGetCurrent
                0x0000000000000000       0x10 obj/fpgaloader.o
 .text          0x0000000000000000        0x0 obj/usb_cdc.o
 .data          0x0000000000000000        0x0 obj/usb_cdc.o
 .bss           0x0000000000000000        0x0 obj/usb_cdc.o
 .text.SetUSBreconnect
                0x0000000000000000       0x10 obj/usb_cdc.o
 .text.GetUSBreconnect
                0x0000000000000000       0x10 obj/usb_cdc.o
 .text.SetUSBconfigured
                0x0000000000000000       0x10 obj/usb_cdc.o
 .text.GetUSBconfigured
                0x0000000000000000       0x10 obj/usb_cdc.o
 .text.usb_poll
                0x0000000000000000       0x3c obj/usb_cdc.o
 .text.usb_read
                0x0000000000000000       0xf0 obj/usb_cdc.o
 .bss.usb_configured
                0x0000000000000000        0x4 obj/usb_cdc.o
 .bss.usb_reconnect
                0x0000000000000000        0x4 obj/usb_cdc.o
 .text          0x0000000000000000        0x0 obj/cmd.o
 .data          0x0000000000000000        0x0 obj/cmd.o
 .bss           0x0000000000000000        0x0 obj/cmd.o
 .data          0x0000000000000000        0x0 /usr/lib/gcc/arm-none-eabi/10.3.1/libgcc.a(_thumb1_case_sqi.o)
 .bss           0x0000000000000000        0x0 /usr/lib/gcc/arm-none-eabi/10.3.1/libgcc.a(_thumb1_case_sqi.o)
 .data          0x0000000000000000        0x0 /usr/lib/gcc/arm-none-eabi/10.3.1/libgcc.a(_thumb1_case_uqi.o)
 .bss           0x0000000000000000        0x0 /usr/lib/gcc/arm-none-eabi/10.3.1/libgcc.a(_thumb1_case_uqi.o)
 .data          0x0000000000000000        0x0 /usr/lib/gcc/arm-none-eabi/10.3.1/libgcc.a(_thumb1_case_shi.o)
 .bss           0x0000000000000000        0x0 /usr/lib/gcc/arm-none-eabi/10.3.1/libgcc.a(_thumb1_case_shi.o)
 .data          0x0000000000000000        0x0 /usr/lib/gcc/arm-none-eabi/10.3.1/libgcc.a(_thumb1_case_uhi.o)
 .bss           0x0000000000000000        0x0 /usr/lib/gcc/arm-none-eabi/10.3.1/libgcc.a(_thumb1_case_uhi.o)
 .data          0x0000000000000000        0x0 /usr/lib/gcc/arm-none-eabi/10.3.1/libgcc.a(_thumb1_case_si.o)
 .bss           0x0000000000000000        0x0 /usr/lib/gcc/arm-none-eabi/10.3.1/libgcc.a(_thumb1_case_si.o)
 .data          0x0000000000000000        0x0 /usr/lib/gcc/arm-none-eabi/10.3.1/libgcc.a(_udivsi3.o)
 .bss           0x0000000000000000        0x0 /usr/lib/gcc/arm-none-eabi/10.3.1/libgcc.a(_udivsi3.o)
 .data          0x0000000000000000        0x0 /usr/lib/gcc/arm-none-eabi/10.3.1/libgcc.a(_divsi3.o)
 .bss           0x0000000000000000        0x0 /usr/lib/gcc/arm-none-eabi/10.3.1/libgcc.a(_divsi3.o)
 .data          0x0000000000000000        0x0 /usr/lib/gcc/arm-none-eabi/10.3.1/libgcc.a(_dvmd_tls.o)
 .bss           0x0000000000000000        0x0 /usr/lib/gcc/arm-none-eabi/10.3.1/libgcc.a(_dvmd_tls.o)
 .data          0x0000000000000000        0x0 /usr/lib/gcc/arm-none-eabi/10.3.1/libgcc.a(_lshrdi3.o)
 .bss           0x0000000000000000        0x0 /usr/lib/gcc/arm-none-eabi/10.3.1/libgcc.a(_lshrdi3.o)
 .data          0x0000000000000000        0x0 /usr/lib/gcc/arm-none-eabi/10.3.1/libgcc.a(_ashldi3.o)
 .bss           0x0000000000000000        0x0 /usr/lib/gcc/arm-none-eabi/10.3.1/libgcc.a(_ashldi3.o)
 .text          0x0000000000000000       0x50 /usr/lib/gcc/arm-none-eabi/10.3.1/libgcc.a(_ctzsi2.o)
 .data          0x0000000000000000        0x0 /usr/lib/gcc/arm-none-eabi/10.3.1/libgcc.a(_ctzsi2.o)
 .bss           0x0000000000000000        0x0 /usr/lib/gcc/arm-none-eabi/10.3.1/libgcc.a(_ctzsi2.o)
 .debug_line    0x0000000000000000       0x66 /usr/lib/gcc/arm-none-eabi/10.3.1/libgcc.a(_ctzsi2.o)
 .debug_info    0x0000000000000000       0x26 /usr/lib/gcc/arm-none-eabi/10.3.1/libgcc.a(_ctzsi2.o)
 .debug_abbrev  0x0000000000000000       0x14 /usr/lib/gcc/arm-none-eabi/10.3.1/libgcc.a(_ctzsi2.o)
 .debug_aranges
                0x0000000000000000       0x20 /usr/lib/gcc/arm-none-eabi/10.3.1/libgcc.a(_ctzsi2.o)
 .debug_str     0x0000000000000000       0x8d /usr/lib/gcc/arm-none-eabi/10.3.1/libgcc.a(_ctzsi2.o)
 .ARM.attributes
                0x0000000000000000       0x1c /usr/lib/gcc/arm-none-eabi/10.3.1/libgcc.a(_ctzsi2.o)
 .text          0x0000000000000000       0xd4 /usr/lib/gcc/arm-none-eabi/10.3.1/libgcc.a(_aeabi_ldivmod.o)
 .data          0x0000000000000000        0x0 /usr/lib/gcc/arm-none-eabi/10.3.1/libgcc.a(_aeabi_ldivmod.o)
 .bss           0x0000000000000000        0x0 /usr/lib/gcc/arm-none-eabi/10.3.1/libgcc.a(_aeabi_ldivmod.o)
 .debug_line    0x0000000000000000       0x75 /usr/lib/gcc/arm-none-eabi/10.3.1/libgcc.a(_aeabi_ldivmod.o)
 .debug_info    0x0000000000000000       0x26 /usr/lib/gcc/arm-none-eabi/10.3.1/libgcc.a(_aeabi_ldivmod.o)
 .debug_abbrev  0x0000000000000000       0x14 /usr/lib/gcc/arm-none-eabi/10.3.1/libgcc.a(_aeabi_ldivmod.o)
 .debug_aranges
                0x0000000000000000       0x20 /usr/lib/gcc/arm-none-eabi/10.3.1/libgcc.a(_aeabi_ldivmod.o)
 .debug_str     0x0000000000000000       0x89 /usr/lib/gcc/arm-none-eabi/10.3.1/libgcc.a(_aeabi_ldivmod.o)
 .debug_frame   0x0000000000000000       0x44 /usr/lib/gcc/arm-none-eabi/10.3.1/libgcc.a(_aeabi_ldivmod.o)
 .ARM.attributes
                0x0000000000000000       0x1c /usr/lib/gcc/arm-none-eabi/10.3.1/libgcc.a(_aeabi_ldivmod.o)
 .data          0x0000000000000000        0x0 /usr/lib/gcc/arm-none-eabi/10.3.1/libgcc.a(_aeabi_uldivmod.o)
 .bss           0x0000000000000000        0x0 /usr/lib/gcc/arm-none-eabi/10.3.1/libgcc.a(_aeabi_uldivmod.o)
 .data          0x0000000000000000        0x0 /usr/lib/gcc/arm-none-eabi/10.3.1/libgcc.a(_muldi3.o)
 .bss           0x0000000000000000        0x0 /usr/lib/gcc/arm-none-eabi/10.3.1/libgcc.a(_muldi3.o)
 .data          0x0000000000000000        0x0 /usr/lib/gcc/arm-none-eabi/10.3.1/libgcc.a(_paritysi2.o)
 .bss           0x0000000000000000        0x0 /usr/lib/gcc/arm-none-eabi/10.3.1/libgcc.a(_paritysi2.o)
 .text          0x0000000000000000       0x14 /usr/lib/gcc/arm-none-eabi/10.3.1/libgcc.a(_bswapsi2.o)
 .data          0x0000000000000000        0x0 /usr/lib/gcc/arm-none-eabi/10.3.1/libgcc.a(_bswapsi2.o)
 .bss           0x0000000000000000        0x0 /usr/lib/gcc/arm-none-eabi/10.3.1/libgcc.a(_bswapsi2.o)
 .debug_info    0x0000000000000000      0x2c3 /usr/lib/gcc/arm-none-eabi/10.3.1/libgcc.a(_bswapsi2.o)
 .debug_abbrev  0x0000000000000000       0xd3 /usr/lib/gcc/arm-none-eabi/10.3.1/libgcc.a(_bswapsi2.o)
 .debug_loc     0x0000000000000000       0x25 /usr/lib/gcc/arm-none-eabi/10.3.1/libgcc.a(_bswapsi2.o)
 .debug_aranges
                0x0000000000000000       0x20 /usr/lib/gcc/arm-none-eabi/10.3.1/libgcc.a(_bswapsi2.o)
 .debug_line    0x0000000000000000       0x7a /usr/lib/gcc/arm-none-eabi/10.3.1/libgcc.a(_bswapsi2.o)
 .debug_str     0x0000000000000000      0x5d3 /usr/lib/gcc/arm-none-eabi/10.3.1/libgcc.a(_bswapsi2.o)
 .comment       0x0000000000000000       0x34 /usr/lib/gcc/arm-none-eabi/10.3.1/libgcc.a(_bswapsi2.o)
 .debug_frame   0x0000000000000000       0x20 /usr/lib/gcc/arm-none-eabi/10.3.1/libgcc.a(_bswapsi2.o)
 .ARM.attributes
                0x0000000000000000       0x2a /usr/lib/gcc/arm-none-eabi/10.3.1/libgcc.a(_bswapsi2.o)
 .text          0x0000000000000000       0x28 /usr/lib/gcc/arm-none-eabi/10.3.1/libgcc.a(_bswapdi2.o)
 .data          0x0000000000000000        0x0 /usr/lib/gcc/arm-none-eabi/10.3.1/libgcc.a(_bswapdi2.o)
 .bss           0x0000000000000000        0x0 /usr/lib/gcc/arm-none-eabi/10.3.1/libgcc.a(_bswapdi2.o)
 .debug_info    0x0000000000000000      0x2c3 /usr/lib/gcc/arm-none-eabi/10.3.1/libgcc.a(_bswapdi2.o)
 .debug_abbrev  0x0000000000000000       0xd3 /usr/lib/gcc/arm-none-eabi/10.3.1/libgcc.a(_bswapdi2.o)
 .debug_loc     0x0000000000000000       0x2c /usr/lib/gcc/arm-none-eabi/10.3.1/libgcc.a(_bswapdi2.o)
 .debug_aranges
                0x0000000000000000       0x20 /usr/lib/gcc/arm-none-eabi/10.3.1/libgcc.a(_bswapdi2.o)
 .debug_line    0x0000000000000000       0x7d /usr/lib/gcc/arm-none-eabi/10.3.1/libgcc.a(_bswapdi2.o)
 .debug_str     0x0000000000000000      0x5d3 /usr/lib/gcc/arm-none-eabi/10.3.1/libgcc.a(_bswapdi2.o)
 .comment       0x0000000000000000       0x34 /usr/lib/gcc/arm-none-eabi/10.3.1/libgcc.a(_bswapdi2.o)
 .debug_frame   0x0000000000000000       0x20 /usr/lib/gcc/arm-none-eabi/10.3.1/libgcc.a(_bswapdi2.o)
 .ARM.attributes
                0x0000000000000000       0x2a /usr/lib/gcc/arm-none-eabi/10.3.1/libgcc.a(_bswapdi2.o)
 .data          0x0000000000000000        0x0 /usr/lib/gcc/arm-none-eabi/10.3.1/libgcc.a(_udivmoddi4.o)
 .bss           0x0000000000000000        0x0 /usr/lib/gcc/arm-none-eabi/10.3.1/libgcc.a(_udivmoddi4.o)
 .ARM.extab     0x0000000000000000        0x0 /usr/lib/gcc/arm-none-eabi/10.3.1/libgcc.a(_udivmoddi4.o)
 .data          0x0000000000000000        0x0 /usr/lib/gcc/arm-none-eabi/10.3.1/libgcc.a(_clzdi2.o)
 .bss           0x0000000000000000        0x0 /usr/lib/gcc/arm-none-eabi/10.3.1/libgcc.a(_clzdi2.o)
 .data          0x0000000000000000        0x0 /usr/lib/gcc/arm-none-eabi/10.3.1/libgcc.a(_clzsi2.o)
 .bss           0x0000000000000000        0x0 /usr/lib/gcc/arm-none-eabi/10.3.1/libgcc.a(_clzsi2.o)

Memory Configuration

Name             Origin             Length             Attributes
bootphase1       0x0000000000100000 0x0000000000000200
bootphase2       0x0000000000100200 0x0000000000001e00
osimage          0x0000000000102000 0x000000000007e000
ram              0x0000000000200000 0x000000000000ffe0
stack            0x000000000020deb8 0x0000000000002128
commonarea       0x000000000020ffe0 0x0000000000000020
*default*        0x0000000000000000 0xffffffffffffffff

Linker script and memory map

                0x0000000000002128                stacksize = DEFINED (stacksize)?stacksize:0x2128
                0x0000000000000020                commonareasize = 0x20
                0x00000000001001fc                _bootphase1_version_pointer = ((ORIGIN (bootphase1) + LENGTH (bootphase1)) - 0x4)
                0x0000000000102000                _osimage_entry = ORIGIN (osimage)
                0x0000000000100000                _bootrom_start = ORIGIN (bootphase1)
                0x0000000000102000                _bootrom_end = (ORIGIN (bootphase2) + LENGTH (bootphase2))
                0x0000000000100000                _flash_start = ORIGIN (bootphase1)
                0x0000000000180000                _flash_end = (ORIGIN (osimage) + LENGTH (osimage))
                0x000000000020deb8                _stack_start = ORIGIN (stack)
                0x000000000020ffd8                _stack_end = ((ORIGIN (ram) + LENGTH (ram)) - 0x8)

.start          0x0000000000102000      0x120
 *(.startos)
 .startos       0x0000000000102000      0x120 obj/start.o
                0x0000000000102000                Vector

.text           0x0000000000102120    0x313b0
 *(.text)
 .text          0x0000000000102120       0x14 /usr/lib/gcc/arm-none-eabi/10.3.1/libgcc.a(_thumb1_case_sqi.o)
                0x0000000000102120                __gnu_thumb1_case_sqi
 .text          0x0000000000102134       0x14 /usr/lib/gcc/arm-none-eabi/10.3.1/libgcc.a(_thumb1_case_uqi.o)
                0x0000000000102134                __gnu_thumb1_case_uqi
 .text          0x0000000000102148       0x14 /usr/lib/gcc/arm-none-eabi/10.3.1/libgcc.a(_thumb1_case_shi.o)
                0x0000000000102148                __gnu_thumb1_case_shi
 .text          0x000000000010215c       0x14 /usr/lib/gcc/arm-none-eabi/10.3.1/libgcc.a(_thumb1_case_uhi.o)
                0x000000000010215c                __gnu_thumb1_case_uhi
 .text          0x0000000000102170       0x18 /usr/lib/gcc/arm-none-eabi/10.3.1/libgcc.a(_thumb1_case_si.o)
                0x0000000000102170                __gnu_thumb1_case_si
 .text          0x0000000000102188      0x114 /usr/lib/gcc/arm-none-eabi/10.3.1/libgcc.a(_udivsi3.o)
                0x0000000000102188                __udivsi3
                0x0000000000102188                __aeabi_uidiv
                0x000000000010227c                __aeabi_uidivmod
 .text          0x000000000010229c      0x148 /usr/lib/gcc/arm-none-eabi/10.3.1/libgcc.a(_divsi3.o)
                0x000000000010229c                __aeabi_idiv
                0x000000000010229c                __divsi3
                0x00000000001023c4                __aeabi_idivmod
 .text          0x00000000001023e4        0x4 /usr/lib/gcc/arm-none-eabi/10.3.1/libgcc.a(_dvmd_tls.o)
                0x00000000001023e4                __aeabi_ldiv0
                0x00000000001023e4                __aeabi_idiv0
 .text          0x00000000001023e8       0x1c /usr/lib/gcc/arm-none-eabi/10.3.1/libgcc.a(_lshrdi3.o)
                0x00000000001023e8                __aeabi_llsr
                0x00000000001023e8                __lshrdi3
 .text          0x0000000000102404       0x1c /usr/lib/gcc/arm-none-eabi/10.3.1/libgcc.a(_ashldi3.o)
                0x0000000000102404                __ashldi3
                0x0000000000102404                __aeabi_llsl
 .text          0x0000000000102420       0x3c /usr/lib/gcc/arm-none-eabi/10.3.1/libgcc.a(_aeabi_uldivmod.o)
                0x0000000000102420                __aeabi_uldivmod
 .text          0x000000000010245c       0x1c /usr/lib/gcc/arm-none-eabi/10.3.1/libgcc.a(_muldi3.o)
                0x000000000010245c                __aeabi_lmul
                0x000000000010245c                __muldi3
 .text          0x0000000000102478       0x24 /usr/lib/gcc/arm-none-eabi/10.3.1/libgcc.a(_paritysi2.o)
                0x0000000000102478                __paritysi2
 .text          0x000000000010249c      0x128 /usr/lib/gcc/arm-none-eabi/10.3.1/libgcc.a(_udivmoddi4.o)
                0x000000000010249c                __udivmoddi4
 .text          0x00000000001025c4       0x28 /usr/lib/gcc/arm-none-eabi/10.3.1/libgcc.a(_clzdi2.o)
                0x00000000001025c4                __clzdi2
 .text          0x00000000001025ec       0x48 /usr/lib/gcc/arm-none-eabi/10.3.1/libgcc.a(_clzsi2.o)
                0x00000000001025ec                __clzsi2
 *(.text.*)
 .text.BuildIdentifyRequest
                0x0000000000102634       0x24 obj/iso15693.o
 .text.init_password_15693_Slix
                0x0000000000102658       0x32 obj/iso15693.o
 *fill*         0x000000000010268a        0x2 
 .text.CodeIso15693AsReader
                0x000000000010268c       0xa4 obj/iso15693.o
                0x000000000010268c                CodeIso15693AsReader
 .text.CodeIso15693AsTag
                0x0000000000102730       0x64 obj/iso15693.o
                0x0000000000102730                CodeIso15693AsTag
 .text.TransmitTo15693Tag
                0x0000000000102794       0xe0 obj/iso15693.o
                0x0000000000102794                TransmitTo15693Tag
 .text.TransmitTo15693Reader
                0x0000000000102874      0x11c obj/iso15693.o
                0x0000000000102874                TransmitTo15693Reader
 .text.GetIso15693AnswerFromTag
                0x0000000000102990      0x2f8 obj/iso15693.o
                0x0000000000102990                GetIso15693AnswerFromTag
 .text.GetIso15693CommandFromReader
                0x0000000000102c88      0x1f0 obj/iso15693.o
                0x0000000000102c88                GetIso15693CommandFromReader
 .text.AcquireRawAdcSamplesIso15693
                0x0000000000102e78       0xdc obj/iso15693.o
                0x0000000000102e78                AcquireRawAdcSamplesIso15693
 .text.SniffIso15693
                0x0000000000102f54      0x4dc obj/iso15693.o
                0x0000000000102f54                SniffIso15693
 .text.Iso15693InitReader
                0x0000000000103430       0x54 obj/iso15693.o
                0x0000000000103430                Iso15693InitReader
 .text.SendDataTag
                0x0000000000103484      0x110 obj/iso15693.o
                0x0000000000103484                SendDataTag
 .text.get_rnd_15693_Slix.constprop.0
                0x0000000000103594       0x74 obj/iso15693.o
 .text.set_pass_15693_Slix.constprop.0
                0x0000000000103608       0xc0 obj/iso15693.o
 .text.get_uid_slix.constprop.0
                0x00000000001036c8       0x9c obj/iso15693.o
 .text.pass_protect_EASAFI_15693_Slix.constprop.0
                0x0000000000103764       0xa0 obj/iso15693.o
 .text.SendDataTagEOF
                0x0000000000103804       0x8a obj/iso15693.o
                0x0000000000103804                SendDataTagEOF
 *fill*         0x000000000010388e        0x2 
 .text.ReaderIso15693
                0x0000000000103890      0x2d4 obj/iso15693.o
                0x0000000000103890                ReaderIso15693
 .text.Iso15693InitTag
                0x0000000000103b64       0x42 obj/iso15693.o
                0x0000000000103b64                Iso15693InitTag
 .text.EmlClearIso15693
                0x0000000000103ba6       0x20 obj/iso15693.o
                0x0000000000103ba6                EmlClearIso15693
 .text.EmlSetMemIso15693
                0x0000000000103bc6       0x1c obj/iso15693.o
                0x0000000000103bc6                EmlSetMemIso15693
 .text.EmlGetMemIso15693
                0x0000000000103be2       0x1c obj/iso15693.o
                0x0000000000103be2                EmlGetMemIso15693
 *fill*         0x0000000000103bfe        0x2 
 .text.SimTagIso15693
                0x0000000000103c00      0x518 obj/iso15693.o
                0x0000000000103c00                SimTagIso15693
 .text.BruteforceIso15693Afi
                0x0000000000104118      0x1a8 obj/iso15693.o
                0x0000000000104118                BruteforceIso15693Afi
 .text.DirectTag15693Command
                0x00000000001042c0      0x12c obj/iso15693.o
                0x00000000001042c0                DirectTag15693Command
 .text.SetTag15693Uid
                0x00000000001043ec      0x104 obj/iso15693.o
                0x00000000001043ec                SetTag15693Uid
 .text.WritePasswordSlixIso15693
                0x00000000001044f0      0x100 obj/iso15693.o
                0x00000000001044f0                WritePasswordSlixIso15693
 .text.DisablePrivacySlixIso15693
                0x00000000001045f0       0xc8 obj/iso15693.o
                0x00000000001045f0                DisablePrivacySlixIso15693
 .text.EnablePrivacySlixIso15693
                0x00000000001046b8       0xbc obj/iso15693.o
                0x00000000001046b8                EnablePrivacySlixIso15693
 .text.DisableEAS_AFISlixIso15693
                0x0000000000104774       0xd8 obj/iso15693.o
                0x0000000000104774                DisableEAS_AFISlixIso15693
 .text.EnableEAS_AFISlixIso15693
                0x000000000010484c       0xd8 obj/iso15693.o
                0x000000000010484c                EnableEAS_AFISlixIso15693
 .text.PassProtextEASSlixIso15693
                0x0000000000104924       0x44 obj/iso15693.o
                0x0000000000104924                PassProtextEASSlixIso15693
 .text.PassProtectAFISlixIso15693
                0x0000000000104968       0x44 obj/iso15693.o
                0x0000000000104968                PassProtectAFISlixIso15693
 .text.WriteAFIIso15693
                0x00000000001049ac       0xf0 obj/iso15693.o
                0x00000000001049ac                WriteAFIIso15693
 .text.iso15693_sprintUID
                0x0000000000104a9c       0x48 obj/iso15693tools.o
                0x0000000000104a9c                iso15693_sprintUID
 .text.ReadThinFilm
                0x0000000000104ae4       0x58 obj/thinfilm.o
                0x0000000000104ae4                ReadThinFilm
 .text.SimulateThinFilm
                0x0000000000104b3c      0x214 obj/thinfilm.o
                0x0000000000104b3c                SimulateThinFilm
 .text.Prepare_Cmd
                0x0000000000104d50       0x24 obj/lfops.o
 .text.Prepare_Addr
                0x0000000000104d74       0x30 obj/lfops.o
 .text.Prepare_Data
                0x0000000000104da4       0x6c obj/lfops.o
 .text.T55xx_SetBits
                0x0000000000104e10       0x7c obj/lfops.o
 .text.WriteTIbyte
                0x0000000000104e8c       0x60 obj/lfops.o
 .text.fcAll    0x0000000000104eec       0xb4 obj/lfops.o
 .text.biphaseSimBit
                0x0000000000104fa0       0x62 obj/lfops.o
 .text.leadingZeroAskSimBits.constprop.0
                0x0000000000105002       0x24 obj/lfops.o
 *fill*         0x0000000000105026        0x2 
 .text.printT55xxConfig
                0x0000000000105028      0x1d8 obj/lfops.o
                0x0000000000105028                printT55xxConfig
 .text.setT55xxConfig
                0x0000000000105200       0xe8 obj/lfops.o
                0x0000000000105200                setT55xxConfig
 .text.loadT55xxConfig
                0x00000000001052e8       0x9c obj/lfops.o
                0x00000000001052e8                loadT55xxConfig
 .text.AcquireTiType
                0x0000000000105384      0x104 obj/lfops.o
                0x0000000000105384                AcquireTiType
 .text.ReadTItag
                0x0000000000105488      0x1a0 obj/lfops.o
                0x0000000000105488                ReadTItag
 .text.WriteTItag
                0x0000000000105628      0x160 obj/lfops.o
                0x0000000000105628                WriteTItag
 .text.SimulateTagLowFrequencyEx
                0x0000000000105788      0x15c obj/lfops.o
                0x0000000000105788                SimulateTagLowFrequencyEx
 .text.SimulateTagLowFrequency
                0x00000000001058e4       0x10 obj/lfops.o
                0x00000000001058e4                SimulateTagLowFrequency
 .text.SimulateTagLowFrequencyBidir
                0x00000000001058f4        0x2 obj/lfops.o
                0x00000000001058f4                SimulateTagLowFrequencyBidir
 *fill*         0x00000000001058f6        0x2 
 .text.CmdFSKsimTAGEx
                0x00000000001058f8       0xc8 obj/lfops.o
                0x00000000001058f8                CmdFSKsimTAGEx
 .text.CmdHIDsimTAGEx
                0x00000000001059c0       0xc8 obj/lfops.o
                0x00000000001059c0                CmdHIDsimTAGEx
 .text.CmdHIDsimTAG
                0x0000000000105a88       0x28 obj/lfops.o
                0x0000000000105a88                CmdHIDsimTAG
 .text.CmdFSKsimTAG
                0x0000000000105ab0       0x34 obj/lfops.o
                0x0000000000105ab0                CmdFSKsimTAG
 .text.CmdASKsimTAG
                0x0000000000105ae4      0x220 obj/lfops.o
                0x0000000000105ae4                CmdASKsimTAG
 .text.CmdPSKsimTAG
                0x0000000000105d04      0x13c obj/lfops.o
                0x0000000000105d04                CmdPSKsimTAG
 .text.CmdNRZsimTAG
                0x0000000000105e40      0x100 obj/lfops.o
                0x0000000000105e40                CmdNRZsimTAG
 .text.lf_hid_watch
                0x0000000000105f40      0x1a8 obj/lfops.o
                0x0000000000105f40                lf_hid_watch
 .text.lf_awid_watch
                0x00000000001060e8      0x1c0 obj/lfops.o
                0x00000000001060e8                lf_awid_watch
 .text.lf_em410x_watch
                0x00000000001062a8      0x1a4 obj/lfops.o
                0x00000000001062a8                lf_em410x_watch
 .text.lf_io_watch
                0x000000000010644c      0x130 obj/lfops.o
                0x000000000010644c                lf_io_watch
 .text.turn_read_lf_on
                0x000000000010657c       0x16 obj/lfops.o
                0x000000000010657c                turn_read_lf_on
 *fill*         0x0000000000106592        0x2 
 .text.ModThenAcquireRawAdcSamples125k
                0x0000000000106594      0x1c8 obj/lfops.o
                0x0000000000106594                ModThenAcquireRawAdcSamples125k
 .text.T55xxWriteBit
                0x000000000010675c       0x54 obj/lfops.o
 .text.T55xx_SendCMD
                0x00000000001067b0      0x1f0 obj/lfops.o
 .text.turn_read_lf_off
                0x00000000001069a0       0x18 obj/lfops.o
                0x00000000001069a0                turn_read_lf_off
 .text.SendForward
                0x00000000001069b8       0x78 obj/lfops.o
 .text.EM4xLoginEx
                0x0000000000106a30       0x38 obj/lfops.o
 .text.T55xxResetRead
                0x0000000000106a68       0x7c obj/lfops.o
                0x0000000000106a68                T55xxResetRead
 .text.T55xxDangerousRawTest
                0x0000000000106ae4      0x190 obj/lfops.o
                0x0000000000106ae4                T55xxDangerousRawTest
 .text.T55xxWriteBlock
                0x0000000000106c74       0x98 obj/lfops.o
                0x0000000000106c74                T55xxWriteBlock
 .text.WriteT55xx.constprop.0
                0x0000000000106d0c       0x3c obj/lfops.o
 .text.T55xxReadBlock
                0x0000000000106d48       0xec obj/lfops.o
                0x0000000000106d48                T55xxReadBlock
 .text.T55xx_ChkPwds
                0x0000000000106e34      0x268 obj/lfops.o
                0x0000000000106e34                T55xx_ChkPwds
 .text.T55xxWakeUp
                0x000000000010709c       0x44 obj/lfops.o
                0x000000000010709c                T55xxWakeUp
 .text.EM4xBruteforce
                0x00000000001070e0      0x150 obj/lfops.o
                0x00000000001070e0                EM4xBruteforce
 .text.EM4xLogin
                0x0000000000107230       0x7c obj/lfops.o
                0x0000000000107230                EM4xLogin
 .text.EM4xReadWord
                0x00000000001072ac       0xac obj/lfops.o
                0x00000000001072ac                EM4xReadWord
 .text.EM4xWriteWord
                0x0000000000107358       0xd8 obj/lfops.o
                0x0000000000107358                EM4xWriteWord
 .text.WriteEM4x05.constprop.0
                0x0000000000107430       0xa8 obj/lfops.o
 .text.copy_em410x_to_t55xx
                0x00000000001074d8      0x258 obj/lfops.o
                0x00000000001074d8                copy_em410x_to_t55xx
 .text.CopyVikingtoT55xx
                0x0000000000107730       0x80 obj/lfops.o
                0x0000000000107730                CopyVikingtoT55xx
 .text.CopyHIDtoT55x7
                0x00000000001077b0      0x160 obj/lfops.o
                0x00000000001077b0                CopyHIDtoT55x7
 .text.EM4xProtectWord
                0x0000000000107910       0xc0 obj/lfops.o
                0x0000000000107910                EM4xProtectWord
 .text.Cotag    0x00000000001079d0       0xfc obj/lfops.o
                0x00000000001079d0                Cotag
 .text.pushBit.constprop.0
                0x0000000000107acc       0x3c obj/lfsampling.o
 .text.printLFConfig
                0x0000000000107b08       0xd0 obj/lfsampling.o
                0x0000000000107b08                printLFConfig
 .text.printSamples
                0x0000000000107bd8       0x34 obj/lfsampling.o
                0x0000000000107bd8                printSamples
 .text.setSamplingConfig
                0x0000000000107c0c       0xb4 obj/lfsampling.o
                0x0000000000107c0c                setSamplingConfig
 .text.setDefaultSamplingConfig
                0x0000000000107cc0       0x14 obj/lfsampling.o
                0x0000000000107cc0                setDefaultSamplingConfig
 .text.getSamplingConfig
                0x0000000000107cd4        0x8 obj/lfsampling.o
                0x0000000000107cd4                getSamplingConfig
 .text.initSampleBufferEx
                0x0000000000107cdc       0x80 obj/lfsampling.o
                0x0000000000107cdc                initSampleBufferEx
 .text.initSampleBuffer
                0x0000000000107d5c        0xe obj/lfsampling.o
                0x0000000000107d5c                initSampleBuffer
 *fill*         0x0000000000107d6a        0x2 
 .text.getSampleCounter
                0x0000000000107d6c        0xc obj/lfsampling.o
                0x0000000000107d6c                getSampleCounter
 .text.logSample
                0x0000000000107d78       0xc0 obj/lfsampling.o
                0x0000000000107d78                logSample
 .text.logSampleSimple
                0x0000000000107e38       0x20 obj/lfsampling.o
                0x0000000000107e38                logSampleSimple
 .text.LFSetupFPGAForADC
                0x0000000000107e58       0x54 obj/lfsampling.o
                0x0000000000107e58                LFSetupFPGAForADC
 .text.DoAcquisition
                0x0000000000107eac      0x184 obj/lfsampling.o
                0x0000000000107eac                DoAcquisition
 .text.DoAcquisition_default
                0x0000000000108030       0x20 obj/lfsampling.o
                0x0000000000108030                DoAcquisition_default
 .text.DoAcquisition_config
                0x0000000000108050       0x5c obj/lfsampling.o
                0x0000000000108050                DoAcquisition_config
 .text.DoPartialAcquisition
                0x00000000001080ac       0x3c obj/lfsampling.o
                0x00000000001080ac                DoPartialAcquisition
 .text.SampleLF
                0x00000000001080e8       0x50 obj/lfsampling.o
                0x00000000001080e8                SampleLF
 .text.SniffLF  0x0000000000108138       0x50 obj/lfsampling.o
                0x0000000000108138                SniffLF
 .text.doCotagAcquisition
                0x0000000000108188       0xe8 obj/lfsampling.o
                0x0000000000108188                doCotagAcquisition
 .text.doCotagAcquisitionManchester
                0x0000000000108270       0xe0 obj/lfsampling.o
                0x0000000000108270                doCotagAcquisitionManchester
 .text.DemodPCF7931
                0x0000000000108350      0x1f4 obj/pcf7931.o
                0x0000000000108350                DemodPCF7931
 .text.IsBlock0PCF7931
                0x0000000000108544       0x44 obj/pcf7931.o
                0x0000000000108544                IsBlock0PCF7931
 .text.IsBlock1PCF7931
                0x0000000000108588       0x40 obj/pcf7931.o
                0x0000000000108588                IsBlock1PCF7931
 .text.ReadPCF7931
                0x00000000001085c8      0x410 obj/pcf7931.o
                0x00000000001085c8                ReadPCF7931
 .text.SendCmdPCF7931
                0x00000000001089d8       0xfc obj/pcf7931.o
                0x00000000001089d8                SendCmdPCF7931
 .text.AddBitPCF7931
                0x0000000000108ad4       0x88 obj/pcf7931.o
                0x0000000000108ad4                AddBitPCF7931
 .text.AddBytePCF7931
                0x0000000000108b5c       0x44 obj/pcf7931.o
                0x0000000000108b5c                AddBytePCF7931
 .text.AddPatternPCF7931
                0x0000000000108ba0       0x40 obj/pcf7931.o
                0x0000000000108ba0                AddPatternPCF7931
 .text.RealWritePCF7931
                0x0000000000108be0      0x1f4 obj/pcf7931.o
 .text.WritePCF7931
                0x0000000000108dd4       0xe4 obj/pcf7931.o
                0x0000000000108dd4                WritePCF7931
 .text.getClosestClock
                0x0000000000108eb8       0x4c obj/lfdemod.o
 .text.findModStart
                0x0000000000108f04       0x94 obj/lfdemod.o
 .text.computeSignalProperties
                0x0000000000108f98       0xdc obj/lfdemod.o
                0x0000000000108f98                computeSignalProperties
 .text.removeSignalOffset
                0x0000000000109074       0x5c obj/lfdemod.o
                0x0000000000109074                removeSignalOffset
 .text.getHiLo  0x00000000001090d0       0x58 obj/lfdemod.o
                0x00000000001090d0                getHiLo
 .text.removeParity
                0x0000000000109128       0x9a obj/lfdemod.o
                0x0000000000109128                removeParity
 .text.bytebits_to_byte
                0x00000000001091c2       0x16 obj/lfdemod.o
                0x00000000001091c2                bytebits_to_byte
 .text.preambleSearchEx
                0x00000000001091d8       0x8c obj/lfdemod.o
                0x00000000001091d8                preambleSearchEx
 .text.preambleSearch
                0x0000000000109264       0x14 obj/lfdemod.o
                0x0000000000109264                preambleSearch
 .text.getNextLow
                0x0000000000109278       0x1a obj/lfdemod.o
                0x0000000000109278                getNextLow
 .text.getNextHigh
                0x0000000000109292       0x1a obj/lfdemod.o
                0x0000000000109292                getNextHigh
 .text.askAmp   0x00000000001092ac       0x32 obj/lfdemod.o
                0x00000000001092ac                askAmp
 .text.manchesterEncode2Bytes
                0x00000000001092de       0x24 obj/lfdemod.o
                0x00000000001092de                manchesterEncode2Bytes
 .text.manchesterEncodeUint32
                0x0000000000109302       0x46 obj/lfdemod.o
                0x0000000000109302                manchesterEncodeUint32
 .text.DetectCleanAskWave
                0x0000000000109348       0x60 obj/lfdemod.o
                0x0000000000109348                DetectCleanAskWave
 .text.DetectStrongAskClock
                0x00000000001093a8      0x108 obj/lfdemod.o
                0x00000000001093a8                DetectStrongAskClock
 .text.DetectASKClock
                0x00000000001094b0      0x310 obj/lfdemod.o
                0x00000000001094b0                DetectASKClock
 .text.manrawdecode
                0x00000000001097c0       0xd8 obj/lfdemod.o
                0x00000000001097c0                manrawdecode
 .text.askdemod_ext
                0x0000000000109898      0x420 obj/lfdemod.o
                0x0000000000109898                askdemod_ext
 .text.askdemod
                0x0000000000109cb8       0x28 obj/lfdemod.o
                0x0000000000109cb8                askdemod
 .text.fskdemod
                0x0000000000109ce0      0x2b0 obj/lfdemod.o
                0x0000000000109ce0                fskdemod
 .text.detectAWID
                0x0000000000109f90       0x80 obj/lfdemod.o
                0x0000000000109f90                detectAWID
 .text.Em410xDecode
                0x000000000010a010      0x1f0 obj/lfdemod.o
                0x000000000010a010                Em410xDecode
 .text.HIDdemodFSK
                0x000000000010a200       0xe0 obj/lfdemod.o
                0x000000000010a200                HIDdemodFSK
 .text.detectIOProx
                0x000000000010a2e0       0xb4 obj/lfdemod.o
                0x000000000010a2e0                detectIOProx
 .text.lf_count_edge_periods_ex
                0x000000000010a394      0x100 obj/lfadc.o
 .text.lf_sample_mean
                0x000000000010a494       0x5c obj/lfadc.o
                0x000000000010a494                lf_sample_mean
 .text.lf_count_edge_periods
                0x000000000010a4f0       0x10 obj/lfadc.o
                0x000000000010a4f0                lf_count_edge_periods
 .text.lf_get_tag_modulation
                0x000000000010a500       0x10 obj/lfadc.o
                0x000000000010a500                lf_get_tag_modulation
 .text.lf_get_reader_modulation
                0x000000000010a510        0xc obj/lfadc.o
                0x000000000010a510                lf_get_reader_modulation
 .text.lf_wait_periods
                0x000000000010a51c       0x10 obj/lfadc.o
                0x000000000010a51c                lf_wait_periods
 .text.lf_init  0x000000000010a52c       0xd0 obj/lfadc.o
                0x000000000010a52c                lf_init
 .text.lf_finalize
                0x000000000010a5fc       0x44 obj/lfadc.o
                0x000000000010a5fc                lf_finalize
 .text.lf_modulation
                0x000000000010a640       0x20 obj/lfadc.o
                0x000000000010a640                lf_modulation
 .text.lf_manchester_send_bit
                0x000000000010a660       0x26 obj/lfadc.o
 *fill*         0x000000000010a686        0x2 
 .text.lf_manchester_send_bytes
                0x000000000010a688       0x74 obj/lfadc.o
                0x000000000010a688                lf_manchester_send_bytes
 .text.LZ4_wildCopy8
                0x000000000010a6fc       0x20 obj/lz4.o
 .text.LZ4_decompress_generic
                0x000000000010a71c      0x460 obj/lz4.o
                0x000000000010a71c                LZ4_decompress_generic
 .text.LZ4_decompress_safe
                0x000000000010ab7c       0x20 obj/lz4.o
                0x000000000010ab7c                LZ4_decompress_safe
 .text.LZ4_decompress_safe_withPrefix64k
                0x000000000010ab9c       0x28 obj/lz4.o
                0x000000000010ab9c                LZ4_decompress_safe_withPrefix64k
 .text.LZ4_decompress_safe_forceExtDict
                0x000000000010abc4       0x26 obj/lz4.o
                0x000000000010abc4                LZ4_decompress_safe_forceExtDict
 .text.LZ4_setStreamDecode
                0x000000000010abea       0x10 obj/lz4.o
                0x000000000010abea                LZ4_setStreamDecode
 *fill*         0x000000000010abfa        0x2 
 .text.LZ4_decompress_safe_continue
                0x000000000010abfc       0x90 obj/lz4.o
                0x000000000010abfc                LZ4_decompress_safe_continue
 .text.init_reader
                0x000000000010ac8c       0x7c obj/legicrf.o
 .text.tx_frame
                0x000000000010ad08       0xe4 obj/legicrf.o
 .text.init_card.constprop.0
                0x000000000010adec       0x5c obj/legicrf.o
 .text.rx_bit   0x000000000010ae48       0x80 obj/legicrf.o
 .text.rx_frame
                0x000000000010aec8       0x84 obj/legicrf.o
 .text.setup_phase
                0x000000000010af4c       0x70 obj/legicrf.o
 .text.read_byte
                0x000000000010afbc       0xa8 obj/legicrf.o
 .text.LegicRfInfo
                0x000000000010b064       0x88 obj/legicrf.o
                0x000000000010b064                LegicRfInfo
 .text.LegicRfReader
                0x000000000010b0ec       0xa0 obj/legicrf.o
                0x000000000010b0ec                LegicRfReader
 .text.LegicRfWriter
                0x000000000010b18c      0x1bc obj/legicrf.o
                0x000000000010b18c                LegicRfWriter
 .text.wait_for
                0x000000000010b348       0x44 obj/legicrfsim.o
 .text.tx_bit   0x000000000010b38c       0x58 obj/legicrfsim.o
 .text.tx_frame
                0x000000000010b3e4       0x8c obj/legicrfsim.o
 .text.rx_frame
                0x000000000010b470      0x10c obj/legicrfsim.o
 .text.LegicRfSimulate
                0x000000000010b57c      0x37c obj/legicrfsim.o
                0x000000000010b57c                LegicRfSimulate
 .text.legic_prng_forward.part.0
                0x000000000010b8f8       0x50 obj/legic_prng.o
 .text.legic_prng_init
                0x000000000010b948       0x1c obj/legic_prng.o
                0x000000000010b948                legic_prng_init
 .text.legic_prng_forward
                0x000000000010b964       0x10 obj/legic_prng.o
                0x000000000010b964                legic_prng_forward
 .text.legic_prng_get_bit
                0x000000000010b974       0x34 obj/legic_prng.o
                0x000000000010b974                legic_prng_get_bit
 .text.FlashmemSetSpiBaudrate
                0x000000000010b9a8       0x28 obj/flashmem.o
                0x000000000010b9a8                FlashmemSetSpiBaudrate
 .text.FlashStop
                0x000000000010b9d0       0x3c obj/flashmem.o
                0x000000000010b9d0                FlashStop
 .text.FlashSetup
                0x000000000010ba0c       0xa4 obj/flashmem.o
                0x000000000010ba0c                FlashSetup
 .text.FlashSendByte
                0x000000000010bab0       0x18 obj/flashmem.o
                0x000000000010bab0                FlashSendByte
 .text.Flash_TransferAdresse
                0x000000000010bac8       0x24 obj/flashmem.o
                0x000000000010bac8                Flash_TransferAdresse
 .text.Flash_ReadDataCont.part.0
                0x000000000010baec       0x64 obj/flashmem.o
 .text.Flash_ReadDataCont
                0x000000000010bb50       0x14 obj/flashmem.o
                0x000000000010bb50                Flash_ReadDataCont
 .text.Flash_ReadStat1
                0x000000000010bb64       0x1c obj/flashmem.o
                0x000000000010bb64                Flash_ReadStat1
 .text.Flash_CheckBusy
                0x000000000010bb80       0x4c obj/flashmem.o
                0x000000000010bb80                Flash_CheckBusy
 .text.FlashInit
                0x000000000010bbcc       0x30 obj/flashmem.o
                0x000000000010bbcc                FlashInit
 .text.Flashmem_print_info
                0x000000000010bbfc       0xc8 obj/flashmem.o
                0x000000000010bbfc                Flashmem_print_info
 .text.Flash_ReadID_90
                0x000000000010bcc4       0x4c obj/flashmem.o
                0x000000000010bcc4                Flash_ReadID_90
 .text.Flash_ReadData
                0x000000000010bd10       0x84 obj/flashmem.o
                0x000000000010bd10                Flash_ReadData
 .text.Flash_UniqueID
                0x000000000010bd94       0x7c obj/flashmem.o
                0x000000000010bd94                Flash_UniqueID
 .text.Flashmem_print_status
                0x000000000010be10      0x114 obj/flashmem.o
                0x000000000010be10                Flashmem_print_status
 .text.FlashSendLastByte
                0x000000000010bf24       0x12 obj/flashmem.o
                0x000000000010bf24                FlashSendLastByte
 *fill*         0x000000000010bf36        0x2 
 .text.Flash_WriteDataCont
                0x000000000010bf38       0x7c obj/flashmem.o
                0x000000000010bf38                Flash_WriteDataCont
 .text.Flash_WriteEnable
                0x000000000010bfb4       0x24 obj/flashmem.o
                0x000000000010bfb4                Flash_WriteEnable
 .text.Flash_Write
                0x000000000010bfd8       0x68 obj/flashmem.o
                0x000000000010bfd8                Flash_Write
 .text.Flash_Erase4k
                0x000000000010c040       0x32 obj/flashmem.o
                0x000000000010c040                Flash_Erase4k
 .text.Flash_Erase64k
                0x000000000010c072       0x2c obj/flashmem.o
                0x000000000010c072                Flash_Erase64k
 *fill*         0x000000000010c09e        0x2 
 .text.Flash_WipeMemoryPage
                0x000000000010c0a0       0x48 obj/flashmem.o
                0x000000000010c0a0                Flash_WipeMemoryPage
 .text.Flash_WipeMemory
                0x000000000010c0e8       0x78 obj/flashmem.o
                0x000000000010c0e8                Flash_WipeMemory
 .text.I2CSpinDelayClk
                0x000000000010c160       0x40 obj/i2c.o
 .text.WaitSCL_H
                0x000000000010c1a0       0x2c obj/i2c.o
 .text.I2C_Start
                0x000000000010c1cc       0x60 obj/i2c.o
 .text.I2C_SendByte
                0x000000000010c22c       0x60 obj/i2c.o
 .text.I2C_WaitAck
                0x000000000010c28c       0x60 obj/i2c.o
 .text.I2C_Stop
                0x000000000010c2ec       0x5c obj/i2c.o
 .text.I2C_Ack  0x000000000010c348       0x4c obj/i2c.o
 .text.I2C_ReadByte
                0x000000000010c394       0x90 obj/i2c.o
 .text.I2C_NoAck
                0x000000000010c424       0x4c obj/i2c.o
 .text.I2C_WaitForSim
                0x000000000010c470       0x54 obj/i2c.o
 .text.I2C_recovery
                0x000000000010c4c4       0xb0 obj/i2c.o
                0x000000000010c4c4                I2C_recovery
 .text.I2C_init
                0x000000000010c574       0x50 obj/i2c.o
                0x000000000010c574                I2C_init
 .text.I2C_SetResetStatus
                0x000000000010c5c4       0x4c obj/i2c.o
                0x000000000010c5c4                I2C_SetResetStatus
 .text.I2C_Reset_EnterMainProgram
                0x000000000010c610       0x42 obj/i2c.o
                0x000000000010c610                I2C_Reset_EnterMainProgram
 .text.I2C_Reset_EnterBootloader
                0x000000000010c652       0x32 obj/i2c.o
                0x000000000010c652                I2C_Reset_EnterBootloader
 .text.I2C_WriteCmd
                0x000000000010c684       0x5c obj/i2c.o
                0x000000000010c684                I2C_WriteCmd
 .text.I2C_WriteByte
                0x000000000010c6e0       0x6c obj/i2c.o
                0x000000000010c6e0                I2C_WriteByte
 .text.I2C_BufferWrite
                0x000000000010c74c       0x7c obj/i2c.o
                0x000000000010c74c                I2C_BufferWrite
 .text.I2C_BufferRead
                0x000000000010c7c8       0xfc obj/i2c.o
                0x000000000010c7c8                I2C_BufferRead
 .text.I2C_ReadFW
                0x000000000010c8c4       0xb4 obj/i2c.o
                0x000000000010c8c4                I2C_ReadFW
 .text.I2C_WriteFW
                0x000000000010c978       0x90 obj/i2c.o
                0x000000000010c978                I2C_WriteFW
 .text.I2C_get_version
                0x000000000010ca08       0x3c obj/i2c.o
                0x000000000010ca08                I2C_get_version
 .text.I2C_print_status
                0x000000000010ca44       0x50 obj/i2c.o
                0x000000000010ca44                I2C_print_status
 .text.sc_rx_bytes
                0x000000000010ca94       0x44 obj/i2c.o
                0x000000000010ca94                sc_rx_bytes
 .text.GetATR.part.0
                0x000000000010cad8       0xe8 obj/i2c.o
 .text.SmartCardAtr
                0x000000000010cbc0       0x50 obj/i2c.o
                0x000000000010cbc0                SmartCardAtr
 .text.SmartCardRaw
                0x000000000010cc10      0x120 obj/i2c.o
                0x000000000010cc10                SmartCardRaw
 .text.SmartCardUpgrade
                0x000000000010cd30      0x104 obj/i2c.o
                0x000000000010cd30                SmartCardUpgrade
 .text.SmartCardSetBaud
                0x000000000010ce34        0x2 obj/i2c.o
                0x000000000010ce34                SmartCardSetBaud
 *fill*         0x000000000010ce36        0x2 
 .text.SmartCardSetClock
                0x000000000010ce38       0x48 obj/i2c.o
                0x000000000010ce38                SmartCardSetClock
 .text._f20     0x000000000010ce80      0x124 obj/hitag2_crypto.o
                0x000000000010ce80                _f20
 .text._hitag2_init
                0x000000000010cfa4       0x6a obj/hitag2_crypto.o
                0x000000000010cfa4                _hitag2_init
 .text._hitag2_round
                0x000000000010d00e       0x9a obj/hitag2_crypto.o
                0x000000000010d00e                _hitag2_round
 .text._hitag2_byte
                0x000000000010d0a8       0x26 obj/hitag2_crypto.o
                0x000000000010d0a8                _hitag2_byte
 .text.hitag2_cipher_transcrypt
                0x000000000010d0ce       0x4e obj/hitag2_crypto.o
                0x000000000010d0ce                hitag2_cipher_transcrypt
 .text.hitag_crc
                0x000000000010d11c       0x44 obj/hitag2.o
 .text.hitag2_write_page
                0x000000000010d160       0xf8 obj/hitag2.o
 .text.hitag2_password
                0x000000000010d258      0x110 obj/hitag2.o
 .text.hitag2_crypto
                0x000000000010d368      0x8a0 obj/hitag2.o
 .text.hitag_reader_send_frame
                0x000000000010dc08       0x98 obj/hitag2.o
 .text.SniffHitag2
                0x000000000010dca0      0x340 obj/hitag2.o
                0x000000000010dca0                SniffHitag2
 .text.SimulateHitag2
                0x000000000010dfe0      0x30c obj/hitag2.o
                0x000000000010dfe0                SimulateHitag2
 .text.ReaderHitag
                0x000000000010e2ec      0xd9c obj/hitag2.o
                0x000000000010e2ec                ReaderHitag
 .text.WriterHitag
                0x000000000010f088      0x410 obj/hitag2.o
                0x000000000010f088                WriterHitag
 .text.hitag_send_bit
                0x000000000010f498      0x1bc obj/hitagS.o
 .text.hitagS_set_frame_modulation
                0x000000000010f654       0x44 obj/hitagS.o
 .text.concatbits
                0x000000000010f698       0x5c obj/hitagS.o
 .text.sendReceiveHitagS.constprop.0
                0x000000000010f6f4      0x2cc obj/hitagS.o
 .text.selectHitagS.constprop.0
                0x000000000010f9c0      0xddc obj/hitagS.o
 .text.calc_crc.constprop.0
                0x000000000011079c       0x26 obj/hitagS.o
 *fill*         0x00000000001107c2        0x2 
 .text.SimulateHitagSTag
                0x00000000001107c4     0x1240 obj/hitagS.o
                0x00000000001107c4                SimulateHitagSTag
 .text.ReadHitagS
                0x0000000000111a04      0x1d8 obj/hitagS.o
                0x0000000000111a04                ReadHitagS
 .text.WritePageHitagS
                0x0000000000111bdc      0x1a0 obj/hitagS.o
                0x0000000000111bdc                WritePageHitagS
 .text.Hitag_check_challenges
                0x0000000000111d7c      0x120 obj/hitagS.o
                0x0000000000111d7c                Hitag_check_challenges
 .text.em4x50_sim_send_bit
                0x0000000000111e9c       0x78 obj/em4x50.o
 .text.wait_cycles
                0x0000000000111f14       0x3c obj/em4x50.o
 .text.em4x50_sim_send_ack
                0x0000000000111f50       0x60 obj/em4x50.o
 .text.em4x50_sim_send_nak
                0x0000000000111fb0       0x68 obj/em4x50.o
 .text.invalid_bit
                0x0000000000112018       0x3c obj/em4x50.o
 .text.get_pulse_length
                0x0000000000112054       0x90 obj/em4x50.o
 .text.find_single_listen_window
                0x00000000001120e4       0x38 obj/em4x50.o
 .text.get_word_from_bitstream
                0x000000000011211c      0x1f8 obj/em4x50.o
 .text.em4x50_reader_send_bit
                0x0000000000112314       0x6c obj/em4x50.o
 .text.find_double_listen_window
                0x0000000000112380       0x84 obj/em4x50.o
 .text.em4x50_reader_send_byte_with_parity
                0x0000000000112404       0x28 obj/em4x50.o
 .text.em4x50_reader_send_word
                0x000000000011242c       0x52 obj/em4x50.o
 *fill*         0x000000000011247e        0x2 
 .text.check_ack
                0x0000000000112480       0x6c obj/em4x50.o
 .text.em4x50_sim_read_bit
                0x00000000001124ec       0x78 obj/em4x50.o
 .text.get_signalproperties
                0x0000000000112564       0xd0 obj/em4x50.o
 .text.em4x50_sim_read_byte
                0x0000000000112634       0x48 obj/em4x50.o
 .text.login    0x000000000011267c       0x50 obj/em4x50.o
 .text.em4x50_sim_read_word.constprop.0
                0x00000000001126cc       0x78 obj/em4x50.o
 .text.em4x50_sim_send_listen_window.isra.0
                0x0000000000112744       0x98 obj/em4x50.o
 .text.em4x50_sim_send_word
                0x00000000001127dc       0x86 obj/em4x50.o
 *fill*         0x0000000000112862        0x2 
 .text.em4x50_setup_read
                0x0000000000112864       0x58 obj/em4x50.o
                0x0000000000112864                em4x50_setup_read
 .text.em4x50_setup_sim
                0x00000000001128bc       0x48 obj/em4x50.o
                0x00000000001128bc                em4x50_setup_sim
 .text.em4x50_login
                0x0000000000112904       0x7c obj/em4x50.o
                0x0000000000112904                em4x50_login
 .text.em4x50_brute
                0x0000000000112980      0x15c obj/em4x50.o
                0x0000000000112980                em4x50_brute
 .text.em4x50_chk
                0x0000000000112adc      0x108 obj/em4x50.o
                0x0000000000112adc                em4x50_chk
 .text.standard_read
                0x0000000000112be4       0x50 obj/em4x50.o
                0x0000000000112be4                standard_read
 .text.selective_read
                0x0000000000112c34       0x58 obj/em4x50.o
 .text.em4x50_read
                0x0000000000112c8c       0xc8 obj/em4x50.o
                0x0000000000112c8c                em4x50_read
 .text.em4x50_info
                0x0000000000112d54       0xb0 obj/em4x50.o
                0x0000000000112d54                em4x50_info
 .text.em4x50_reader
                0x0000000000112e04       0x8c obj/em4x50.o
                0x0000000000112e04                em4x50_reader
 .text.em4x50_write
                0x0000000000112e90      0x1d8 obj/em4x50.o
                0x0000000000112e90                em4x50_write
 .text.em4x50_writepwd
                0x0000000000113068      0x150 obj/em4x50.o
                0x0000000000113068                em4x50_writepwd
 .text.em4x50_handle_commands
                0x00000000001131b8      0x39c obj/em4x50.o
                0x00000000001131b8                em4x50_handle_commands
 .text.em4x50_sim
                0x0000000000113554       0xc0 obj/em4x50.o
                0x0000000000113554                em4x50_sim
 .text.init_tag
                0x0000000000113614       0x18 obj/em4x70.o
 .text.em4x70_setup_read
                0x000000000011362c       0x58 obj/em4x70.o
 .text.get_signalproperties
                0x0000000000113684       0x2c obj/em4x70.o
 .text.get_rising_pulse_length
                0x00000000001136b0       0x6c obj/em4x70.o
 .text.get_falling_pulse_length
                0x000000000011371c       0x6c obj/em4x70.o
 .text.em4x70_send_bit
                0x0000000000113788       0x68 obj/em4x70.o
 .text.find_listen_window
                0x00000000001137f0       0x70 obj/em4x70.o
 .text.find_em4x70_tag
                0x0000000000113860        0xe obj/em4x70.o
 *fill*         0x000000000011386e        0x2 
 .text.em4x70_send_nibble
                0x0000000000113870       0x40 obj/em4x70.o
 .text.em4x70_send_byte
                0x00000000001138b0       0x1c obj/em4x70.o
 .text.set_byte
                0x00000000001138cc       0x1e obj/em4x70.o
 *fill*         0x00000000001138ea        0x2 
 .text.check_ack
                0x00000000001138ec       0x28 obj/em4x70.o
 .text.write    0x0000000000113914       0x9c obj/em4x70.o
 .text.bits2bytes
                0x00000000001139b0       0x54 obj/em4x70.o
 .text.em4x70_receive
                0x0000000000113a04       0xcc obj/em4x70.o
 .text.send_command_and_read
                0x0000000000113ad0       0x6c obj/em4x70.o
 .text.em4x70_read_id
                0x0000000000113b3c       0x18 obj/em4x70.o
 .text.em4x70_read_um1
                0x0000000000113b54       0x18 obj/em4x70.o
 .text.em4x70_read_um2
                0x0000000000113b6c       0x18 obj/em4x70.o
 .text.send_pin
                0x0000000000113b84       0xa4 obj/em4x70.o
 .text.authenticate
                0x0000000000113c28       0x9c obj/em4x70.o
 .text.em4x70_info
                0x0000000000113cc4       0x6c obj/em4x70.o
                0x0000000000113cc4                em4x70_info
 .text.em4x70_write
                0x0000000000113d30       0x74 obj/em4x70.o
                0x0000000000113d30                em4x70_write
 .text.em4x70_unlock
                0x0000000000113da4       0x70 obj/em4x70.o
                0x0000000000113da4                em4x70_unlock
 .text.em4x70_auth
                0x0000000000113e14       0x74 obj/em4x70.o
                0x0000000000113e14                em4x70_auth
 .text.em4x70_brute
                0x0000000000113e88      0x1f8 obj/em4x70.o
                0x0000000000113e88                em4x70_brute
 .text.em4x70_write_pin
                0x0000000000114080       0x8c obj/em4x70.o
                0x0000000000114080                em4x70_write_pin
 .text.em4x70_write_key
                0x000000000011410c       0x84 obj/em4x70.o
                0x000000000011410c                em4x70_write_key
 .text.rdv40_spiffs_llerase
                0x0000000000114190       0x98 obj/spiffs.o
 .text.rdv40_spiffs_llwrite
                0x0000000000114228       0x28 obj/spiffs.o
 .text.rdv40_spiffs_llread
                0x0000000000114250       0x1a obj/spiffs.o
 *fill*         0x000000000011426a        0x2 
 .text.remove_from_spiffs
                0x000000000011426c       0x2c obj/spiffs.o
 .text.rdv40_spiffs_mount
                0x0000000000114298       0x78 obj/spiffs.o
                0x0000000000114298                rdv40_spiffs_mount
 .text.rdv40_spiffs_unmount
                0x0000000000114310       0x48 obj/spiffs.o
                0x0000000000114310                rdv40_spiffs_unmount
 .text.write_to_spiffs
                0x0000000000114358       0x4c obj/spiffs.o
                0x0000000000114358                write_to_spiffs
 .text.append_to_spiffs
                0x00000000001143a4       0x4c obj/spiffs.o
                0x00000000001143a4                append_to_spiffs
 .text.read_from_spiffs
                0x00000000001143f0       0x4c obj/spiffs.o
                0x00000000001143f0                read_from_spiffs
 .text.size_in_spiffs
                0x000000000011443c       0x38 obj/spiffs.o
                0x000000000011443c                size_in_spiffs
 .text.exists_in_spiffs
                0x0000000000114474       0x1c obj/spiffs.o
                0x0000000000114474                exists_in_spiffs
 .text.rdv40_spiffs_lazy_mount
                0x0000000000114490       0x20 obj/spiffs.o
                0x0000000000114490                rdv40_spiffs_lazy_mount
 .text.rdv40_spiffs_lazy_unmount
                0x00000000001144b0       0x20 obj/spiffs.o
                0x00000000001144b0                rdv40_spiffs_lazy_unmount
 .text.rdv40_spiffs_check
                0x00000000001144d0       0x38 obj/spiffs.o
                0x00000000001144d0                rdv40_spiffs_check
 .text.rdv40_spiffs_lazy_mount_rollback
                0x0000000000114508       0x24 obj/spiffs.o
                0x0000000000114508                rdv40_spiffs_lazy_mount_rollback
 .text.rdv40_spiffs_write
                0x000000000011452c       0xa8 obj/spiffs.o
                0x000000000011452c                rdv40_spiffs_write
 .text.rdv40_spiffs_append
                0x00000000001145d4       0x78 obj/spiffs.o
                0x00000000001145d4                rdv40_spiffs_append
 .text.rdv40_spiffs_read
                0x000000000011464c       0x36 obj/spiffs.o
                0x000000000011464c                rdv40_spiffs_read
 *fill*         0x0000000000114682        0x2 
 .text.rdv40_spiffs_rename
                0x0000000000114684       0x50 obj/spiffs.o
                0x0000000000114684                rdv40_spiffs_rename
 .text.rdv40_spiffs_remove
                0x00000000001146d4       0x2e obj/spiffs.o
                0x00000000001146d4                rdv40_spiffs_remove
 .text.rdv40_spiffs_copy
                0x0000000000114702       0x54 obj/spiffs.o
                0x0000000000114702                rdv40_spiffs_copy
 .text.rdv40_spiffs_is_symlink
                0x0000000000114756       0x3c obj/spiffs.o
                0x0000000000114756                rdv40_spiffs_is_symlink
 *fill*         0x0000000000114792        0x2 
 .text.rdv40_spiffs_read_as_symlink
                0x0000000000114794       0x80 obj/spiffs.o
                0x0000000000114794                rdv40_spiffs_read_as_symlink
 .text.rdv40_spiffs_make_symlink
                0x0000000000114814       0x48 obj/spiffs.o
                0x0000000000114814                rdv40_spiffs_make_symlink
 .text.rdv40_spiffs_read_as_filetype
                0x000000000011485c       0xc4 obj/spiffs.o
                0x000000000011485c                rdv40_spiffs_read_as_filetype
 .text.rdv40_spiffs_safe_print_fsinfo
                0x0000000000114920       0xe0 obj/spiffs.o
                0x0000000000114920                rdv40_spiffs_safe_print_fsinfo
 .text.rdv40_spiffs_safe_print_tree
                0x0000000000114a00       0x90 obj/spiffs.o
                0x0000000000114a00                rdv40_spiffs_safe_print_tree
 .text.rdv40_spiffs_safe_wipe
                0x0000000000114a90       0x88 obj/spiffs.o
                0x0000000000114a90                rdv40_spiffs_safe_wipe
 .text.test_spiffs
                0x0000000000114b18       0xb8 obj/spiffs.o
                0x0000000000114b18                test_spiffs
 .text.spiffs_cache_page_free
                0x0000000000114bd0       0x5a obj/spiffs_cache.o
 .text.spiffs_cache_page_remove_oldest.constprop.0
                0x0000000000114c2a       0x5e obj/spiffs_cache.o
 .text.spiffs_cache_page_allocate.isra.0
                0x0000000000114c88       0x3c obj/spiffs_cache.o
 .text.spiffs_cache_page_get.isra.0
                0x0000000000114cc4       0x4e obj/spiffs_cache.o
 .text.spiffs_cache_drop_page
                0x0000000000114d12       0x1e obj/spiffs_cache.o
                0x0000000000114d12                spiffs_cache_drop_page
 .text.spiffs_phys_rd
                0x0000000000114d30       0xd4 obj/spiffs_cache.o
                0x0000000000114d30                spiffs_phys_rd
 .text.spiffs_phys_wr
                0x0000000000114e04       0x74 obj/spiffs_cache.o
                0x0000000000114e04                spiffs_phys_wr
 .text.spiffs_cache_page_get_by_fd
                0x0000000000114e78       0x4e obj/spiffs_cache.o
                0x0000000000114e78                spiffs_cache_page_get_by_fd
 .text.spiffs_cache_page_allocate_by_fd
                0x0000000000114ec6       0x24 obj/spiffs_cache.o
                0x0000000000114ec6                spiffs_cache_page_allocate_by_fd
 .text.spiffs_cache_fd_release
                0x0000000000114eea       0x3c obj/spiffs_cache.o
                0x0000000000114eea                spiffs_cache_fd_release
 .text.spiffs_cache_init
                0x0000000000114f26       0x8e obj/spiffs_cache.o
                0x0000000000114f26                spiffs_cache_init
 .text.spiffs_object_get_data_page_index_reference
                0x0000000000114fb4       0x80 obj/spiffs_check.o
 .text.spiffs_delete_obj_lazy
                0x0000000000115034       0x4c obj/spiffs_check.o
 .text.spiffs_rewrite_index
                0x0000000000115080      0x160 obj/spiffs_check.o
 .text.spiffs_rewrite_page
                0x00000000001151e0       0x44 obj/spiffs_check.o
 .text.spiffs_lookup_check_v
                0x0000000000115224      0x5d8 obj/spiffs_check.o
 .text.spiffs_object_index_consistency_check_v
                0x00000000001157fc      0x18c obj/spiffs_check.o
 .text.spiffs_lookup_consistency_check
                0x0000000000115988       0x80 obj/spiffs_check.o
                0x0000000000115988                spiffs_lookup_consistency_check
 .text.spiffs_page_consistency_check
                0x0000000000115a08      0x614 obj/spiffs_check.o
                0x0000000000115a08                spiffs_page_consistency_check
 .text.spiffs_object_index_consistency_check
                0x000000000011601c       0x90 obj/spiffs_check.o
                0x000000000011601c                spiffs_object_index_consistency_check
 .text.spiffs_gc_erase_block
                0x00000000001160ac       0x34 obj/spiffs_gc.o
 .text.spiffs_gc_quick
                0x00000000001160e0       0xac obj/spiffs_gc.o
                0x00000000001160e0                spiffs_gc_quick
 .text.spiffs_gc_erase_page_stats
                0x000000000011618c       0x58 obj/spiffs_gc.o
                0x000000000011618c                spiffs_gc_erase_page_stats
 .text.spiffs_gc_find_candidate
                0x00000000001161e4      0x1a4 obj/spiffs_gc.o
                0x00000000001161e4                spiffs_gc_find_candidate
 .text.spiffs_gc_clean
                0x0000000000116388      0x44c obj/spiffs_gc.o
                0x0000000000116388                spiffs_gc_clean
 .text.spiffs_gc_check
                0x00000000001167d4       0xe4 obj/spiffs_gc.o
                0x00000000001167d4                spiffs_gc_check
 .text.spiffs_obj_lu_find_id_and_span_v
                0x00000000001168b8       0x74 obj/spiffs_nucleus.o
 .text.spiffs_object_find_object_index_header_by_name_v
                0x000000000011692c       0x68 obj/spiffs_nucleus.o
 .text.spiffs_obj_lu_find_free_obj_id_bitmap_v
                0x0000000000116994       0x9c obj/spiffs_nucleus.o
 .text.spiffs_obj_lu_scan_v
                0x0000000000116a30       0x30 obj/spiffs_nucleus.o
 .text.spiffs_obj_lu_find_free_obj_id_compact_v
                0x0000000000116a60       0x98 obj/spiffs_nucleus.o
 .text.spiffs_hash.constprop.0
                0x0000000000116af8       0x28 obj/spiffs_nucleus.o
 .text.spiffs_update_ix_map.constprop.0.isra.0
                0x0000000000116b20       0xcc obj/spiffs_nucleus.o
 .text.spiffs_phys_cpy
                0x0000000000116bec       0x60 obj/spiffs_nucleus.o
                0x0000000000116bec                spiffs_phys_cpy
 .text.spiffs_obj_lu_find_entry_visitor
                0x0000000000116c4c      0x198 obj/spiffs_nucleus.o
                0x0000000000116c4c                spiffs_obj_lu_find_entry_visitor
 .text.spiffs_erase_block
                0x0000000000116de4       0x54 obj/spiffs_nucleus.o
                0x0000000000116de4                spiffs_erase_block
 .text.spiffs_obj_lu_scan
                0x0000000000116e38       0xb8 obj/spiffs_nucleus.o
                0x0000000000116e38                spiffs_obj_lu_scan
 .text.spiffs_obj_lu_find_id
                0x0000000000116ef0       0x34 obj/spiffs_nucleus.o
                0x0000000000116ef0                spiffs_obj_lu_find_id
 .text.spiffs_obj_lu_find_free
                0x0000000000116f24       0x78 obj/spiffs_nucleus.o
                0x0000000000116f24                spiffs_obj_lu_find_free
 .text.spiffs_obj_lu_find_id_and_span
                0x0000000000116f9c       0x74 obj/spiffs_nucleus.o
                0x0000000000116f9c                spiffs_obj_lu_find_id_and_span
 .text.spiffs_obj_lu_find_id_and_span_by_phdr
                0x0000000000117010       0x74 obj/spiffs_nucleus.o
                0x0000000000117010                spiffs_obj_lu_find_id_and_span_by_phdr
 .text.spiffs_page_allocate_data
                0x0000000000117084      0x106 obj/spiffs_nucleus.o
                0x0000000000117084                spiffs_page_allocate_data
 .text.spiffs_page_delete
                0x000000000011718a       0x5e obj/spiffs_nucleus.o
                0x000000000011718a                spiffs_page_delete
 .text.spiffs_page_move
                0x00000000001171e8       0xfc obj/spiffs_nucleus.o
                0x00000000001171e8                spiffs_page_move
 .text.spiffs_cb_object_event
                0x00000000001172e4      0x160 obj/spiffs_nucleus.o
                0x00000000001172e4                spiffs_cb_object_event
 .text.spiffs_object_create
                0x0000000000117444       0xfc obj/spiffs_nucleus.o
                0x0000000000117444                spiffs_object_create
 .text.spiffs_object_update_index_hdr
                0x0000000000117540      0x100 obj/spiffs_nucleus.o
                0x0000000000117540                spiffs_object_update_index_hdr
 .text.spiffs_object_open_by_page
                0x0000000000117640       0xb0 obj/spiffs_nucleus.o
                0x0000000000117640                spiffs_object_open_by_page
 .text.spiffs_object_append
                0x00000000001176f0      0x5c0 obj/spiffs_nucleus.o
                0x00000000001176f0                spiffs_object_append
 .text.spiffs_object_modify
                0x0000000000117cb0      0x4fc obj/spiffs_nucleus.o
                0x0000000000117cb0                spiffs_object_modify
 .text.spiffs_object_find_object_index_header_by_name
                0x00000000001181ac       0x60 obj/spiffs_nucleus.o
                0x00000000001181ac                spiffs_object_find_object_index_header_by_name
 .text.spiffs_object_truncate
                0x000000000011820c      0x4f8 obj/spiffs_nucleus.o
                0x000000000011820c                spiffs_object_truncate
 .text.spiffs_object_read
                0x0000000000118704      0x20c obj/spiffs_nucleus.o
                0x0000000000118704                spiffs_object_read
 .text.spiffs_obj_lu_find_free_obj_id
                0x0000000000118910      0x170 obj/spiffs_nucleus.o
                0x0000000000118910                spiffs_obj_lu_find_free_obj_id
 .text.spiffs_fd_find_new
                0x0000000000118a80       0xe4 obj/spiffs_nucleus.o
                0x0000000000118a80                spiffs_fd_find_new
 .text.spiffs_fd_return
                0x0000000000118b64       0x38 obj/spiffs_nucleus.o
                0x0000000000118b64                spiffs_fd_return
 .text.spiffs_fd_get
                0x0000000000118b9c       0x44 obj/spiffs_nucleus.o
                0x0000000000118b9c                spiffs_fd_get
 .text.spiffs_fd_temporal_cache_rehash
                0x0000000000118be0       0x3a obj/spiffs_nucleus.o
                0x0000000000118be0                spiffs_fd_temporal_cache_rehash
 .text.spiffs_stat_pix
                0x0000000000118c1a       0x84 obj/spiffs_hydrogen.o
 *fill*         0x0000000000118c9e        0x2 
 .text.spiffs_read_dir_v
                0x0000000000118ca0       0x84 obj/spiffs_hydrogen.o
 .text.spiffs_hydro_write.constprop.0
                0x0000000000118d24       0x56 obj/spiffs_hydrogen.o
 .text.spiffs_fflush_cache
                0x0000000000118d7a       0x62 obj/spiffs_hydrogen.o
 .text.SPIFFS_mount
                0x0000000000118ddc       0xc4 obj/spiffs_hydrogen.o
                0x0000000000118ddc                SPIFFS_mount
 .text.SPIFFS_unmount
                0x0000000000118ea0       0x50 obj/spiffs_hydrogen.o
                0x0000000000118ea0                SPIFFS_unmount
 .text.SPIFFS_errno
                0x0000000000118ef0        0x4 obj/spiffs_hydrogen.o
                0x0000000000118ef0                SPIFFS_errno
 .text.SPIFFS_clearerr
                0x0000000000118ef4        0x6 obj/spiffs_hydrogen.o
                0x0000000000118ef4                SPIFFS_clearerr
 *fill*         0x0000000000118efa        0x2 
 .text.SPIFFS_open
                0x0000000000118efc      0x124 obj/spiffs_hydrogen.o
                0x0000000000118efc                SPIFFS_open
 .text.SPIFFS_read
                0x0000000000119020       0xc8 obj/spiffs_hydrogen.o
                0x0000000000119020                SPIFFS_read
 .text.SPIFFS_write
                0x00000000001190e8      0x194 obj/spiffs_hydrogen.o
                0x00000000001190e8                SPIFFS_write
 .text.SPIFFS_remove
                0x000000000011927c       0xc0 obj/spiffs_hydrogen.o
                0x000000000011927c                SPIFFS_remove
 .text.SPIFFS_stat
                0x000000000011933c       0x68 obj/spiffs_hydrogen.o
                0x000000000011933c                SPIFFS_stat
 .text.SPIFFS_close
                0x00000000001193a4       0x48 obj/spiffs_hydrogen.o
                0x00000000001193a4                SPIFFS_close
 .text.SPIFFS_rename
                0x00000000001193ec       0xfc obj/spiffs_hydrogen.o
                0x00000000001193ec                SPIFFS_rename
 .text.SPIFFS_opendir
                0x00000000001194e8       0x38 obj/spiffs_hydrogen.o
                0x00000000001194e8                SPIFFS_opendir
 .text.SPIFFS_readdir
                0x0000000000119520       0x6c obj/spiffs_hydrogen.o
                0x0000000000119520                SPIFFS_readdir
 .text.SPIFFS_closedir
                0x000000000011958c       0x2c obj/spiffs_hydrogen.o
                0x000000000011958c                SPIFFS_closedir
 .text.SPIFFS_check
                0x00000000001195b8       0x4c obj/spiffs_hydrogen.o
                0x00000000001195b8                SPIFFS_check
 .text.SPIFFS_info
                0x0000000000119604       0x54 obj/spiffs_hydrogen.o
                0x0000000000119604                SPIFFS_info
 .text.SPIFFS_gc_quick
                0x0000000000119658       0x3c obj/spiffs_hydrogen.o
                0x0000000000119658                SPIFFS_gc_quick
 .text.SPIFFS_gc
                0x0000000000119694       0x3c obj/spiffs_hydrogen.o
                0x0000000000119694                SPIFFS_gc
 .text.EncodeAddBit
                0x00000000001196d0       0x5c obj/hfops.o
 .text.EncodeFinish
                0x000000000011972c       0x38 obj/hfops.o
 .text.HfReadADC
                0x0000000000119764       0xf4 obj/hfops.o
                0x0000000000119764                HfReadADC
 .text.HfSimulateTkm
                0x0000000000119858      0x29c obj/hfops.o
                0x0000000000119858                HfSimulateTkm
 .text.CodeIso14443aAsTagPar
                0x0000000000119af4      0x10c obj/iso14443a.o
 .text.dist_nt  0x0000000000119c00       0x54 obj/iso14443a.o
 .text.printHf14aConfig
                0x0000000000119c54      0x134 obj/iso14443a.o
                0x0000000000119c54                printHf14aConfig
 .text.setHf14aConfig
                0x0000000000119d88       0x58 obj/iso14443a.o
                0x0000000000119d88                setHf14aConfig
 .text.getHf14aConfig
                0x0000000000119de0        0x8 obj/iso14443a.o
                0x0000000000119de0                getHf14aConfig
 .text.iso14a_set_timeout
                0x0000000000119de8        0xc obj/iso14443a.o
                0x0000000000119de8                iso14a_set_timeout
 .text.iso14a_get_timeout
                0x0000000000119df4        0xc obj/iso14443a.o
                0x0000000000119df4                iso14a_get_timeout
 .text.GetParity
                0x0000000000119e00       0x54 obj/iso14443a.o
                0x0000000000119e00                GetParity
 .text.GetUart14a
                0x0000000000119e54        0x8 obj/iso14443a.o
                0x0000000000119e54                GetUart14a
 .text.Uart14aReset
                0x0000000000119e5c       0x20 obj/iso14443a.o
                0x0000000000119e5c                Uart14aReset
 .text.Demod14aReset
                0x0000000000119e7c       0x24 obj/iso14443a.o
                0x0000000000119e7c                Demod14aReset
 .text.GetIso14443aAnswerFromTag.part.0
                0x0000000000119ea0       0xcc obj/iso14443a.o
 .text.GetIso14443aCommandFromReader
                0x0000000000119f6c       0xa4 obj/iso14443a.o
                0x0000000000119f6c                GetIso14443aCommandFromReader
 .text.prepare_tag_modulation
                0x000000000011a010       0xcc obj/iso14443a.o
                0x000000000011a010                prepare_tag_modulation
 .text.prepare_allocated_tag_modulation
                0x000000000011a0dc       0x3e obj/iso14443a.o
                0x000000000011a0dc                prepare_allocated_tag_modulation
 *fill*         0x000000000011a11a        0x2 
 .text.SimulateIso14443aInit
                0x000000000011a11c      0x474 obj/iso14443a.o
                0x000000000011a11c                SimulateIso14443aInit
 .text.EmGetCmd
                0x000000000011a590      0x128 obj/iso14443a.o
                0x000000000011a590                EmGetCmd
 .text.EmSendCmd14443aRaw
                0x000000000011a6b8      0x130 obj/iso14443a.o
                0x000000000011a6b8                EmSendCmd14443aRaw
 .text.EmLogTrace
                0x000000000011a7e8       0x68 obj/iso14443a.o
                0x000000000011a7e8                EmLogTrace
 .text.EmSend4bit
                0x000000000011a850      0x124 obj/iso14443a.o
                0x000000000011a850                EmSend4bit
 .text.EmSendCmdParEx
                0x000000000011a974       0x7c obj/iso14443a.o
                0x000000000011a974                EmSendCmdParEx
 .text.EmSendCmdPar
                0x000000000011a9f0        0xe obj/iso14443a.o
                0x000000000011a9f0                EmSendCmdPar
 .text.EmSendCmdEx
                0x000000000011a9fe       0x34 obj/iso14443a.o
                0x000000000011a9fe                EmSendCmdEx
 .text.EmSendCmd
                0x000000000011aa32        0xe obj/iso14443a.o
                0x000000000011aa32                EmSendCmd
 .text.EmSendPrecompiledCmd
                0x000000000011aa40       0xec obj/iso14443a.o
                0x000000000011aa40                EmSendPrecompiledCmd
 .text.GetIso14443aAnswerFromTag_Thinfilm
                0x000000000011ab2c      0x290 obj/iso14443a.o
                0x000000000011ab2c                GetIso14443aAnswerFromTag_Thinfilm
 .text.ReaderTransmitBitsPar
                0x000000000011adbc      0x310 obj/iso14443a.o
                0x000000000011adbc                ReaderTransmitBitsPar
 .text.ReaderTransmitPar
                0x000000000011b0cc       0x10 obj/iso14443a.o
                0x000000000011b0cc                ReaderTransmitPar
 .text.ReaderTransmit
                0x000000000011b0dc       0x36 obj/iso14443a.o
                0x000000000011b0dc                ReaderTransmit
 *fill*         0x000000000011b112        0x2 
 .text.ReaderReceive
                0x000000000011b114       0x54 obj/iso14443a.o
                0x000000000011b114                ReaderReceive
 .text.GetATQA  0x000000000011b168       0xf4 obj/iso14443a.o
 .text.iso14443a_select_cardEx
                0x000000000011b25c      0x608 obj/iso14443a.o
                0x000000000011b25c                iso14443a_select_cardEx
 .text.iso14443a_select_card
                0x000000000011b864       0x20 obj/iso14443a.o
                0x000000000011b864                iso14443a_select_card
 .text.iso14443a_fast_select_card
                0x000000000011b884       0xe4 obj/iso14443a.o
                0x000000000011b884                iso14443a_fast_select_card
 .text.iso14443a_setup
                0x000000000011b968       0x74 obj/iso14443a.o
                0x000000000011b968                iso14443a_setup
 .text.SimulateIso14443aTag
                0x000000000011b9dc      0x9c4 obj/iso14443a.o
                0x000000000011b9dc                SimulateIso14443aTag
 .text.iso14443a_antifuzz
                0x000000000011c3a0      0x180 obj/iso14443a.o
                0x000000000011c3a0                iso14443a_antifuzz
 .text.iso14_apdu
                0x000000000011c520      0x164 obj/iso14443a.o
                0x000000000011c520                iso14_apdu
 .text.ReaderIso14443a
                0x000000000011c684      0x2dc obj/iso14443a.o
                0x000000000011c684                ReaderIso14443a
 .text.ReaderMifare
                0x000000000011c960      0x500 obj/iso14443a.o
                0x000000000011c960                ReaderMifare
 .text.DetectNACKbug
                0x000000000011ce60      0x3e8 obj/iso14443a.o
                0x000000000011ce60                DetectNACKbug
 .text.mf_crypto1_decryptEx
                0x000000000011d248       0xa8 obj/mifareutil.o
                0x000000000011d248                mf_crypto1_decryptEx
 .text.mf_crypto1_encryptEx
                0x000000000011d2f0       0x7c obj/mifareutil.o
                0x000000000011d2f0                mf_crypto1_encryptEx
 .text.mf_crypto1_encrypt
                0x000000000011d36c       0x14 obj/mifareutil.o
                0x000000000011d36c                mf_crypto1_encrypt
 .text.mf_crypto1_encrypt4bit
                0x000000000011d380       0x74 obj/mifareutil.o
                0x000000000011d380                mf_crypto1_encrypt4bit
 .text.mifare_sendcmd
                0x000000000011d3f4       0x80 obj/mifareutil.o
                0x000000000011d3f4                mifare_sendcmd
 .text.mifare_sendcmd_short
                0x000000000011d474      0x160 obj/mifareutil.o
                0x000000000011d474                mifare_sendcmd_short
 .text.mifare_ultra_readblockEx
                0x000000000011d5d4       0xcc obj/mifareutil.o
 .text.mifare_classic_authex_2
                0x000000000011d6a0      0x244 obj/mifareutil.o
                0x000000000011d6a0                mifare_classic_authex_2
 .text.mifare_classic_authex
                0x000000000011d8e4       0x28 obj/mifareutil.o
                0x000000000011d8e4                mifare_classic_authex
 .text.mifare_classic_auth
                0x000000000011d90c       0x22 obj/mifareutil.o
                0x000000000011d90c                mifare_classic_auth
 *fill*         0x000000000011d92e        0x2 
 .text.mifare_classic_readblock_ex
                0x000000000011d930       0xdc obj/mifareutil.o
                0x000000000011d930                mifare_classic_readblock_ex
 .text.mifare_classic_readblock
                0x000000000011da0c       0x10 obj/mifareutil.o
                0x000000000011da0c                mifare_classic_readblock
 .text.mifare_ul_ev1_auth
                0x000000000011da1c       0xa4 obj/mifareutil.o
                0x000000000011da1c                mifare_ul_ev1_auth
 .text.mifare_ultra_auth
                0x000000000011dac0      0x2b8 obj/mifareutil.o
                0x000000000011dac0                mifare_ultra_auth
 .text.mifare_ultra_readblock
                0x000000000011dd78       0x28 obj/mifareutil.o
                0x000000000011dd78                mifare_ultra_readblock
 .text.mifare_classic_writeblock_ex
                0x000000000011dda0      0x1c0 obj/mifareutil.o
                0x000000000011dda0                mifare_classic_writeblock_ex
 .text.mifare_classic_writeblock
                0x000000000011df60       0x10 obj/mifareutil.o
                0x000000000011df60                mifare_classic_writeblock
 .text.mifare_classic_write_cfg_block_gdm
                0x000000000011df70      0x180 obj/mifareutil.o
                0x000000000011df70                mifare_classic_write_cfg_block_gdm
 .text.mifare_classic_value
                0x000000000011e0f0      0x1a4 obj/mifareutil.o
                0x000000000011e0f0                mifare_classic_value
 .text.mifare_ultra_writeblock_compat
                0x000000000011e294       0xb8 obj/mifareutil.o
                0x000000000011e294                mifare_ultra_writeblock_compat
 .text.mifare_ultra_writeblock
                0x000000000011e34c       0x84 obj/mifareutil.o
                0x000000000011e34c                mifare_ultra_writeblock
 .text.mifare_classic_halt_ex
                0x000000000011e3d0       0x48 obj/mifareutil.o
                0x000000000011e3d0                mifare_classic_halt_ex
 .text.mifare_classic_halt
                0x000000000011e418        0xc obj/mifareutil.o
                0x000000000011e418                mifare_classic_halt
 .text.mifare_ultra_halt
                0x000000000011e424       0x44 obj/mifareutil.o
                0x000000000011e424                mifare_ultra_halt
 .text.NumBlocksPerSector
                0x000000000011e468        0xc obj/mifareutil.o
                0x000000000011e468                NumBlocksPerSector
 .text.FirstBlockOfSector
                0x000000000011e474       0x10 obj/mifareutil.o
                0x000000000011e474                FirstBlockOfSector
 .text.emlSetMem_xt
                0x000000000011e484       0x22 obj/mifareutil.o
                0x000000000011e484                emlSetMem_xt
 .text.emlSetMem
                0x000000000011e4a6        0xe obj/mifareutil.o
                0x000000000011e4a6                emlSetMem
 .text.emlGetMem
                0x000000000011e4b4       0x1e obj/mifareutil.o
                0x000000000011e4b4                emlGetMem
 .text.emlGetMemBt
                0x000000000011e4d2       0x1c obj/mifareutil.o
                0x000000000011e4d2                emlGetMemBt
 .text.emlCheckValBl
                0x000000000011e4ee       0x86 obj/mifareutil.o
                0x000000000011e4ee                emlCheckValBl
 .text.emlGetValBl
                0x000000000011e574       0x38 obj/mifareutil.o
                0x000000000011e574                emlGetValBl
 .text.emlSetValBl
                0x000000000011e5ac       0x4c obj/mifareutil.o
                0x000000000011e5ac                emlSetValBl
 .text.emlGetKey
                0x000000000011e5f8       0x4a obj/mifareutil.o
                0x000000000011e5f8                emlGetKey
 *fill*         0x000000000011e642        0x2 
 .text.emlClearMem
                0x000000000011e644       0x64 obj/mifareutil.o
                0x000000000011e644                emlClearMem
 .text.SectorTrailer
                0x000000000011e6a8       0x30 obj/mifareutil.o
                0x000000000011e6a8                SectorTrailer
 .text.IsSectorTrailer
                0x000000000011e6d8       0x14 obj/mifareutil.o
                0x000000000011e6d8                IsSectorTrailer
 .text.chkKey   0x000000000011e6ec       0x48 obj/mifarecmd.o
 .text.chkKey_scanB.constprop.0
                0x000000000011e734       0x84 obj/mifarecmd.o
 .text.chkKey_loopBonly.constprop.0
                0x000000000011e7b8      0x144 obj/mifarecmd.o
 .text.chkKey_scanA.constprop.0
                0x000000000011e8fc       0x80 obj/mifarecmd.o
 .text.MifareReadBlock
                0x000000000011e97c      0x144 obj/mifarecmd.o
                0x000000000011e97c                MifareReadBlock
 .text.MifareUC_Auth
                0x000000000011eac0       0xc4 obj/mifarecmd.o
                0x000000000011eac0                MifareUC_Auth
 .text.MifareUReadBlock
                0x000000000011eb84      0x124 obj/mifarecmd.o
                0x000000000011eb84                MifareUReadBlock
 .text.MifareReadConfigBlockGDM
                0x000000000011eca8       0xdc obj/mifarecmd.o
                0x000000000011eca8                MifareReadConfigBlockGDM
 .text.MifareReadSector
                0x000000000011ed84      0x190 obj/mifarecmd.o
                0x000000000011ed84                MifareReadSector
 .text.MifareUReadCard
                0x000000000011ef14      0x18c obj/mifarecmd.o
                0x000000000011ef14                MifareUReadCard
 .text.MifareWriteBlock
                0x000000000011f0a0      0x160 obj/mifarecmd.o
                0x000000000011f0a0                MifareWriteBlock
 .text.MifareWriteBlockGDM
                0x000000000011f200       0xe8 obj/mifarecmd.o
                0x000000000011f200                MifareWriteBlockGDM
 .text.MifareWriteConfigBlockGDM
                0x000000000011f2e8       0xd0 obj/mifarecmd.o
                0x000000000011f2e8                MifareWriteConfigBlockGDM
 .text.MifareValue
                0x000000000011f3b8      0x1fc obj/mifarecmd.o
                0x000000000011f3b8                MifareValue
 .text.MifareUWriteBlock
                0x000000000011f5b4      0x130 obj/mifarecmd.o
                0x000000000011f5b4                MifareUWriteBlock
 .text.MifareUWriteBlockCompat
                0x000000000011f6e4      0x13c obj/mifarecmd.o
                0x000000000011f6e4                MifareUWriteBlockCompat
 .text.MifareUSetPwd
                0x000000000011f820      0x194 obj/mifarecmd.o
                0x000000000011f820                MifareUSetPwd
 .text.MifareAcquireNonces
                0x000000000011f9b4      0x21c obj/mifarecmd.o
                0x000000000011f9b4                MifareAcquireNonces
 .text.MifareAcquireEncryptedNonces
                0x000000000011fbd0      0x350 obj/mifarecmd.o
                0x000000000011fbd0                MifareAcquireEncryptedNonces
 .text.MifareNested
                0x000000000011ff20      0x628 obj/mifarecmd.o
                0x000000000011ff20                MifareNested
 .text.MifareStaticNested
                0x0000000000120548      0x278 obj/mifarecmd.o
                0x0000000000120548                MifareStaticNested
 .text.MifareChkKeys
                0x00000000001207c0      0x1a8 obj/mifarecmd.o
                0x00000000001207c0                MifareChkKeys
 .text.MifareChkKeys_file
                0x0000000000120968       0x52 obj/mifarecmd.o
                0x0000000000120968                MifareChkKeys_file
 *fill*         0x00000000001209ba        0x2 
 .text.MifarePersonalizeUID
                0x00000000001209bc      0x11c obj/mifarecmd.o
                0x00000000001209bc                MifarePersonalizeUID
 .text.MifareEMemClr
                0x0000000000120ad8       0x12 obj/mifarecmd.o
                0x0000000000120ad8                MifareEMemClr
 .text.MifareEMemSet
                0x0000000000120aea       0x28 obj/mifarecmd.o
                0x0000000000120aea                MifareEMemSet
 *fill*         0x0000000000120b12        0x2 
 .text.MifareEMemGet
                0x0000000000120b14       0x64 obj/mifarecmd.o
                0x0000000000120b14                MifareEMemGet
 .text.MifareECardLoad
                0x0000000000120b78      0x1f8 obj/mifarecmd.o
                0x0000000000120b78                MifareECardLoad
 .text.MifareChkKeys_fast
                0x0000000000120d70      0x67c obj/mifarecmd.o
                0x0000000000120d70                MifareChkKeys_fast
 .text.MifareECardLoadExt
                0x00000000001213ec       0x24 obj/mifarecmd.o
                0x00000000001213ec                MifareECardLoadExt
 .text.OnSuccessMagic
                0x0000000000121410       0x1a obj/mifarecmd.o
                0x0000000000121410                OnSuccessMagic
 *fill*         0x000000000012142a        0x2 
 .text.MifareCIdent
                0x000000000012142c      0x370 obj/mifarecmd.o
                0x000000000012142c                MifareCIdent
 .text.MifareHasStaticNonce
                0x000000000012179c      0x130 obj/mifarecmd.o
                0x000000000012179c                MifareHasStaticNonce
 .text.OnErrorMagic
                0x00000000001218cc       0x2e obj/mifarecmd.o
                0x00000000001218cc                OnErrorMagic
 *fill*         0x00000000001218fa        0x2 
 .text.MifareCSetBlock
                0x00000000001218fc      0x29c obj/mifarecmd.o
                0x00000000001218fc                MifareCSetBlock
 .text.MifareCGetBlock
                0x0000000000121b98      0x1a4 obj/mifarecmd.o
                0x0000000000121b98                MifareCGetBlock
 .text.DoGen3Cmd
                0x0000000000121d3c       0xa0 obj/mifarecmd.o
                0x0000000000121d3c                DoGen3Cmd
 .text.MifareGen3UID
                0x0000000000121ddc       0xcc obj/mifarecmd.o
                0x0000000000121ddc                MifareGen3UID
 .text.MifareGen3Blk
                0x0000000000121ea8      0x148 obj/mifarecmd.o
                0x0000000000121ea8                MifareGen3Blk
 .text.MifareGen3Freez
                0x0000000000121ff0       0x68 obj/mifarecmd.o
                0x0000000000121ff0                MifareGen3Freez
 .text.MifareG4ReadBlk
                0x0000000000122058      0x154 obj/mifarecmd.o
                0x0000000000122058                MifareG4ReadBlk
 .text.MifareG4WriteBlk
                0x00000000001221ac      0x180 obj/mifarecmd.o
                0x00000000001221ac                MifareG4WriteBlk
 .text.MifareSetMod
                0x000000000012232c      0x16c obj/mifarecmd.o
                0x000000000012232c                MifareSetMod
 .text.MifareU_Otp_Tearoff
                0x0000000000122498       0xf0 obj/mifarecmd.o
                0x0000000000122498                MifareU_Otp_Tearoff
 .text.MifareU_Counter_Tearoff
                0x0000000000122588       0xd4 obj/mifarecmd.o
                0x0000000000122588                MifareU_Counter_Tearoff
 .text.EPA_APDU
                0x000000000012265c       0x38 obj/epa.o
 .text.EPA_Finish
                0x0000000000122694       0x20 obj/epa.o
                0x0000000000122694                EPA_Finish
 .text.EPA_PACE_Collect_Nonce_Abort
                0x00000000001226b4       0x34 obj/epa.o
 .text.EPA_Parse_CardAccess
                0x00000000001226e8       0xbc obj/epa.o
                0x00000000001226e8                EPA_Parse_CardAccess
 .text.EPA_Read_CardAccess
                0x00000000001227a4       0x98 obj/epa.o
                0x00000000001227a4                EPA_Read_CardAccess
 .text.EPA_PACE_Get_Nonce
                0x000000000012283c       0x74 obj/epa.o
                0x000000000012283c                EPA_PACE_Get_Nonce
 .text.EPA_PACE_MSE_Set_AT
                0x00000000001228b0       0x78 obj/epa.o
                0x00000000001228b0                EPA_PACE_MSE_Set_AT
 .text.EPA_Setup
                0x0000000000122928       0xac obj/epa.o
                0x0000000000122928                EPA_Setup
 .text.EPA_PACE_Collect_Nonce
                0x00000000001229d4       0xbc obj/epa.o
                0x00000000001229d4                EPA_PACE_Collect_Nonce
 .text.EPA_PACE_Replay
                0x0000000000122a90      0x164 obj/epa.o
                0x0000000000122a90                EPA_PACE_Replay
 .text.EPA_PACE_Simulate
                0x0000000000122bf4       0x84 obj/epa.o
                0x0000000000122bf4                EPA_PACE_Simulate
 .text.IsAccessAllowed
                0x0000000000122c78      0x2a8 obj/mifaresim.o
 .text.Mifare1ksim
                0x0000000000122f20     0x1ab8 obj/mifaresim.o
                0x0000000000122f20                Mifare1ksim
 .text.Uart14bReset
                0x00000000001249d8       0x1c obj/iso14443b.o
 .text.Demod14bReset
                0x00000000001249f4       0x1c obj/iso14443b.o
 .text.iso14b_set_timeout
                0x0000000000124a10       0x34 obj/iso14443b.o
 .text.CodeIso14443bAsTag
                0x0000000000124a44      0x118 obj/iso14443b.o
 .text.TransmitFor14443b_AsTag
                0x0000000000124b5c       0x4c obj/iso14443b.o
 .text.CodeAndTransmit14443bAsReader
                0x0000000000124ba8      0x254 obj/iso14443b.o
 .text.Get14443bAnswerFromTag
                0x0000000000124dfc      0x1a4 obj/iso14443b.o
 .text.iso14443b_select_srx_card
                0x0000000000124fa0      0x180 obj/iso14443b.o
 .text.SimulateIso14443bTag
                0x0000000000125120      0x300 obj/iso14443b.o
                0x0000000000125120                SimulateIso14443bTag
 .text.iso14443b_apdu
                0x0000000000125420      0x190 obj/iso14443b.o
                0x0000000000125420                iso14443b_apdu
 .text.iso14443b_select_xrx_card
                0x00000000001255b0      0x2ac obj/iso14443b.o
                0x00000000001255b0                iso14443b_select_xrx_card
 .text.iso14443b_select_card
                0x000000000012585c      0x1b0 obj/iso14443b.o
                0x000000000012585c                iso14443b_select_card
 .text.iso14443b_setup
                0x0000000000125a0c       0x84 obj/iso14443b.o
                0x0000000000125a0c                iso14443b_setup
 .text.ReadSTBlock
                0x0000000000125a90      0x12c obj/iso14443b.o
                0x0000000000125a90                ReadSTBlock
 .text.SniffIso14443b
                0x0000000000125bbc      0x340 obj/iso14443b.o
                0x0000000000125bbc                SniffIso14443b
 .text.SendRawCommand14443B_Ex
                0x0000000000125efc      0x440 obj/iso14443b.o
                0x0000000000125efc                SendRawCommand14443B_Ex
 .text.filter   0x000000000012633c       0x6c obj/crypto1.o
                0x000000000012633c                filter
 .text.crypto1_init
                0x00000000001263a8       0x50 obj/crypto1.o
                0x00000000001263a8                crypto1_init
 .text.crypto1_deinit
                0x00000000001263f8        0x8 obj/crypto1.o
                0x00000000001263f8                crypto1_deinit
 .text.crypto1_bit
                0x0000000000126400       0x4c obj/crypto1.o
                0x0000000000126400                crypto1_bit
 .text.crypto1_byte
                0x000000000012644c       0xb4 obj/crypto1.o
                0x000000000012644c                crypto1_byte
 .text.crypto1_word
                0x0000000000126500      0x286 obj/crypto1.o
                0x0000000000126500                crypto1_word
 *fill*         0x0000000000126786        0x2 
 .text.prng_successor
                0x0000000000126788       0x4c obj/crypto1.o
                0x0000000000126788                prng_successor
 .text.mbedtls_des_setkey
                0x00000000001267d4      0x300 obj/des.o
                0x00000000001267d4                mbedtls_des_setkey
 .text.des3_set2key
                0x0000000000126ad4       0x86 obj/des.o
 .text.des3_set3key
                0x0000000000126b5a       0x6e obj/des.o
 .text.mbedtls_des_setkey_enc
                0x0000000000126bc8        0xe obj/des.o
                0x0000000000126bc8                mbedtls_des_setkey_enc
 .text.mbedtls_des_setkey_dec
                0x0000000000126bd6       0x30 obj/des.o
                0x0000000000126bd6                mbedtls_des_setkey_dec
 .text.mbedtls_des3_set2key_enc
                0x0000000000126c06       0x1e obj/des.o
                0x0000000000126c06                mbedtls_des3_set2key_enc
 .text.mbedtls_des3_set2key_dec
                0x0000000000126c24       0x20 obj/des.o
                0x0000000000126c24                mbedtls_des3_set2key_dec
 .text.mbedtls_des3_set3key_enc
                0x0000000000126c44       0x1e obj/des.o
                0x0000000000126c44                mbedtls_des3_set3key_enc
 .text.mbedtls_des3_set3key_dec
                0x0000000000126c62       0x20 obj/des.o
                0x0000000000126c62                mbedtls_des3_set3key_dec
 *fill*         0x0000000000126c82        0x2 
 .text.mbedtls_des_crypt_ecb
                0x0000000000126c84      0x214 obj/des.o
                0x0000000000126c84                mbedtls_des_crypt_ecb
 .text.mbedtls_des3_crypt_ecb
                0x0000000000126e98      0x414 obj/des.o
                0x0000000000126e98                mbedtls_des3_crypt_ecb
 .text.des_decrypt
                0x00000000001272ac       0x24 obj/desfire_crypto.o
                0x00000000001272ac                des_decrypt
 .text.tdes_nxp_receive
                0x00000000001272d0       0x74 obj/desfire_crypto.o
                0x00000000001272d0                tdes_nxp_receive
 .text.tdes_nxp_send
                0x0000000000127344       0x70 obj/desfire_crypto.o
                0x0000000000127344                tdes_nxp_send
 .text.Desfire_des_key_new_with_version
                0x00000000001273b4       0x28 obj/desfire_crypto.o
                0x00000000001273b4                Desfire_des_key_new_with_version
 .text.Desfire_des_key_new
                0x00000000001273dc       0x30 obj/desfire_crypto.o
                0x00000000001273dc                Desfire_des_key_new
 .text.Desfire_3des_key_new_with_version
                0x000000000012740c       0x1c obj/desfire_crypto.o
                0x000000000012740c                Desfire_3des_key_new_with_version
 .text.Desfire_3k3des_key_new_with_version
                0x0000000000127428       0x1c obj/desfire_crypto.o
                0x0000000000127428                Desfire_3k3des_key_new_with_version
 .text.Desfire_3k3des_key_new
                0x0000000000127444       0x34 obj/desfire_crypto.o
                0x0000000000127444                Desfire_3k3des_key_new
 .text.Desfire_aes_key_new_with_version
                0x0000000000127478       0x22 obj/desfire_crypto.o
                0x0000000000127478                Desfire_aes_key_new_with_version
 .text.Desfire_aes_key_new
                0x000000000012749a       0x10 obj/desfire_crypto.o
                0x000000000012749a                Desfire_aes_key_new
 .text.Desfire_session_key_new
                0x00000000001274aa       0xe2 obj/desfire_crypto.o
                0x00000000001274aa                Desfire_session_key_new
 .text.CreateAPDU
                0x000000000012758c       0x88 obj/mifaredesfire.o
                0x000000000012758c                CreateAPDU
 .text.DesfireAPDU
                0x0000000000127614       0xb4 obj/mifaredesfire.o
                0x0000000000127614                DesfireAPDU
 .text.OnSuccess
                0x00000000001276c8       0x40 obj/mifaredesfire.o
                0x00000000001276c8                OnSuccess
 .text.MifareDesfireGetInformation
                0x0000000000127708      0x1e4 obj/mifaredesfire.o
                0x0000000000127708                MifareDesfireGetInformation
 .text.OnError  0x00000000001278ec       0x2e obj/mifaredesfire.o
                0x00000000001278ec                OnError
 *fill*         0x000000000012791a        0x2 
 .text.InitDesfireCard
                0x000000000012791c       0x58 obj/mifaredesfire.o
                0x000000000012791c                InitDesfireCard
 .text.MifareSendCommand
                0x0000000000127974       0xd4 obj/mifaredesfire.o
                0x0000000000127974                MifareSendCommand
 .text.OnErrorNG
                0x0000000000127a48       0x14 obj/mifaredesfire.o
                0x0000000000127a48                OnErrorNG
 .text.MifareDES_Auth1
                0x0000000000127a5c      0x620 obj/mifaredesfire.o
                0x0000000000127a5c                MifareDES_Auth1
 .text.mbedtls_aes_init
                0x000000000012807c       0x12 obj/aes.o
                0x000000000012807c                mbedtls_aes_init
 .text.mbedtls_aes_free
                0x000000000012808e       0x14 obj/aes.o
                0x000000000012808e                mbedtls_aes_free
 *fill*         0x00000000001280a2        0x2 
 .text.mbedtls_aes_setkey_enc
                0x00000000001280a4      0x1b0 obj/aes.o
                0x00000000001280a4                mbedtls_aes_setkey_enc
 .text.mbedtls_aes_setkey_dec
                0x0000000000128254      0x108 obj/aes.o
                0x0000000000128254                mbedtls_aes_setkey_dec
 .text.mbedtls_internal_aes_encrypt
                0x000000000012835c      0x3bc obj/aes.o
                0x000000000012835c                mbedtls_internal_aes_encrypt
 .text.mbedtls_internal_aes_decrypt
                0x0000000000128718      0x3b8 obj/aes.o
                0x0000000000128718                mbedtls_internal_aes_decrypt
 .text.mbedtls_aes_crypt_ecb
                0x0000000000128ad0       0x1c obj/aes.o
                0x0000000000128ad0                mbedtls_aes_crypt_ecb
 .text.mbedtls_aes_crypt_cbc
                0x0000000000128aec       0xac obj/aes.o
                0x0000000000128aec                mbedtls_aes_crypt_cbc
 .text.mbedtls_platform_zeroize
                0x0000000000128b98       0x14 obj/platform_util.o
                0x0000000000128b98                mbedtls_platform_zeroize
 .text.rotateCSN
                0x0000000000128bac       0x24 obj/iclass.o
 .text.CodeIClassTagSOF
                0x0000000000128bd0       0x22 obj/iclass.o
 .text.iclass_send_as_reader
                0x0000000000128bf2       0x56 obj/iclass.o
 .text.iclass_send_cmd_with_retries
                0x0000000000128c48       0x7e obj/iclass.o
 *fill*         0x0000000000128cc6        0x2 
 .text.select_iclass_tag_ex.constprop.0
                0x0000000000128cc8      0x280 obj/iclass.o
 .text.SniffIClass
                0x0000000000128f48        0xe obj/iclass.o
                0x0000000000128f48                SniffIClass
 *fill*         0x0000000000128f56        0x2 
 .text.do_iclass_simulation
                0x0000000000128f58      0x908 obj/iclass.o
                0x0000000000128f58                do_iclass_simulation
 .text.do_iclass_simulation_nonsec
                0x0000000000129860      0x450 obj/iclass.o
                0x0000000000129860                do_iclass_simulation_nonsec
 .text.iclass_simulate
                0x0000000000129cb0      0x1c4 obj/iclass.o
                0x0000000000129cb0                iclass_simulate
 .text.SimulateIClass
                0x0000000000129e74       0x1e obj/iclass.o
                0x0000000000129e74                SimulateIClass
 .text.select_iclass_tag
                0x0000000000129e92       0x1c obj/iclass.o
                0x0000000000129e92                select_iclass_tag
 .text.ReaderIClass
                0x0000000000129eae       0x88 obj/iclass.o
                0x0000000000129eae                ReaderIClass
 .text.authenticate_iclass_tag
                0x0000000000129f36       0xda obj/iclass.o
                0x0000000000129f36                authenticate_iclass_tag
 .text.iClass_Authentication_fast
                0x000000000012a010      0x178 obj/iclass.o
                0x000000000012a010                iClass_Authentication_fast
 .text.iClass_ReadBlock
                0x000000000012a188      0x11c obj/iclass.o
                0x000000000012a188                iClass_ReadBlock
 .text.iClass_Dump
                0x000000000012a2a4      0x1a8 obj/iclass.o
                0x000000000012a2a4                iClass_Dump
 .text.iClass_WriteBlock
                0x000000000012a44c      0x218 obj/iclass.o
                0x000000000012a44c                iClass_WriteBlock
 .text.iClass_Restore
                0x000000000012a664      0x238 obj/iclass.o
                0x000000000012a664                iClass_Restore
 .text.tailBit  0x000000000012a89c       0x20 obj/optimized_cipherutils.o
                0x000000000012a89c                tailBit
 .text.pushBit  0x000000000012a8bc       0x26 obj/optimized_cipherutils.o
                0x000000000012a8bc                pushBit
 .text.push6bits
                0x000000000012a8e2       0x48 obj/optimized_cipherutils.o
                0x000000000012a8e2                push6bits
 .text.bitsLeft
                0x000000000012a92a        0x8 obj/optimized_cipherutils.o
                0x000000000012a92a                bitsLeft
 .text.x_bytes_to_num
                0x000000000012a932       0x24 obj/optimized_cipherutils.o
                0x000000000012a932                x_bytes_to_num
 .text.reversebytes
                0x000000000012a956       0x2c obj/optimized_cipherutils.o
                0x000000000012a956                reversebytes
 .text.reverse_arraycopy
                0x000000000012a982       0x20 obj/optimized_cipherutils.o
                0x000000000012a982                reverse_arraycopy
 .text.pushbackSixBitByte
                0x000000000012a9a2       0x3e obj/optimized_ikeys.o
 .text.ck       0x000000000012a9e0       0xb2 obj/optimized_ikeys.o
 *fill*         0x000000000012aa92        0x2 
 .text.hash0    0x000000000012aa94      0x23c obj/optimized_ikeys.o
                0x000000000012aa94                hash0
 .text.diversifyKey
                0x000000000012acd0       0x38 obj/optimized_ikeys.o
                0x000000000012acd0                diversifyKey
 .text.permutekey_rev
                0x000000000012ad08       0x6a obj/optimized_elite.o
                0x000000000012ad08                permutekey_rev
 *fill*         0x000000000012ad72        0x2 
 .text.desdecrypt_iclass
                0x000000000012ad74       0x30 obj/optimized_elite.o
 .text.desencrypt_iclass
                0x000000000012ada4       0x30 obj/optimized_elite.o
 .text.hash1    0x000000000012add4      0x114 obj/optimized_elite.o
                0x000000000012add4                hash1
 .text.hash2    0x000000000012aee8       0xd4 obj/optimized_elite.o
                0x000000000012aee8                hash2
 .text.opt_successor
                0x000000000012afbc       0x84 obj/optimized_cipher.o
 .text.opt_suc  0x000000000012b040       0x9c obj/optimized_cipher.o
 .text.opt_output
                0x000000000012b0dc       0xbc obj/optimized_cipher.o
 .text.opt_doReaderMAC
                0x000000000012b198       0x60 obj/optimized_cipher.o
                0x000000000012b198                opt_doReaderMAC
 .text.doMAC_N  0x000000000012b1f8       0x64 obj/optimized_cipher.o
                0x000000000012b1f8                doMAC_N
 .text.opt_doTagMAC_1
                0x000000000012b25c       0x44 obj/optimized_cipher.o
                0x000000000012b25c                opt_doTagMAC_1
 .text.opt_doTagMAC_2
                0x000000000012b2a0       0x26 obj/optimized_cipher.o
                0x000000000012b2a0                opt_doTagMAC_2
 .text.iclass_calc_div_key
                0x000000000012b2c6       0x6c obj/optimized_cipher.o
                0x000000000012b2c6                iclass_calc_div_key
 .text.crc_clear
                0x000000000012b332       0x20 obj/crc.o
                0x000000000012b332                crc_clear
 .text.crc_init
                0x000000000012b352       0x2a obj/crc.o
                0x000000000012b352                crc_init
 .text.crc_init_ref
                0x000000000012b37c       0x26 obj/crc.o
                0x000000000012b37c                crc_init_ref
 .text.crc_update2
                0x000000000012b3a2       0x42 obj/crc.o
                0x000000000012b3a2                crc_update2
 .text.crc_update
                0x000000000012b3e4       0x3a obj/crc.o
                0x000000000012b3e4                crc_update
 .text.crc_finish
                0x000000000012b41e       0x20 obj/crc.o
                0x000000000012b41e                crc_finish
 .text.CRC8Legic
                0x000000000012b43e       0x48 obj/crc.o
                0x000000000012b43e                CRC8Legic
 .text.CRC8Hitag1Bits
                0x000000000012b486       0x70 obj/crc.o
                0x000000000012b486                CRC8Hitag1Bits
 *fill*         0x000000000012b4f6        0x2 
 .text.generate_table
                0x000000000012b4f8       0x74 obj/crc16.o
                0x000000000012b4f8                generate_table
 .text.reset_table
                0x000000000012b56c       0x2c obj/crc16.o
                0x000000000012b56c                reset_table
 .text.init_table
                0x000000000012b598       0x6c obj/crc16.o
                0x000000000012b598                init_table
 .text.crc16_fast
                0x000000000012b604       0x74 obj/crc16.o
                0x000000000012b604                crc16_fast
 .text.update_crc16_ex
                0x000000000012b678       0x34 obj/crc16.o
                0x000000000012b678                update_crc16_ex
 .text.update_crc16
                0x000000000012b6ac       0x14 obj/crc16.o
                0x000000000012b6ac                update_crc16
 .text.crc16_ccitt
                0x000000000012b6c0       0x18 obj/crc16.o
                0x000000000012b6c0                crc16_ccitt
 .text.crc16_fdxb
                0x000000000012b6d8       0x14 obj/crc16.o
                0x000000000012b6d8                crc16_fdxb
 .text.crc16_kermit
                0x000000000012b6ec       0x12 obj/crc16.o
                0x000000000012b6ec                crc16_kermit
 .text.crc16_xmodem
                0x000000000012b6fe       0x12 obj/crc16.o
                0x000000000012b6fe                crc16_xmodem
 .text.crc16_x25
                0x000000000012b710       0x1c obj/crc16.o
                0x000000000012b710                crc16_x25
 .text.crc16_a  0x000000000012b72c       0x18 obj/crc16.o
                0x000000000012b72c                crc16_a
 .text.crc16_iclass
                0x000000000012b744       0x18 obj/crc16.o
                0x000000000012b744                crc16_iclass
 .text.compute_crc
                0x000000000012b75c       0x80 obj/crc16.o
                0x000000000012b75c                compute_crc
 .text.check_crc
                0x000000000012b7dc       0x84 obj/crc16.o
                0x000000000012b7dc                check_crc
 .text.FelicaFrameReset
                0x000000000012b860       0x14 obj/felica.o
 .text.shiftInByte
                0x000000000012b874       0x68 obj/felica.o
 .text.iso18092_setup
                0x000000000012b8dc       0xa4 obj/felica.o
 .text.Process18092Byte
                0x000000000012b980      0x138 obj/felica.o
 .text.TransmitFor18092_AsReader.constprop.0
                0x000000000012bab8      0x104 obj/felica.o
 .text.WaitForFelicaReply.constprop.0
                0x000000000012bbbc      0x10c obj/felica.o
 .text.felica_sendraw
                0x000000000012bcc8      0x2c0 obj/felica.o
                0x000000000012bcc8                felica_sendraw
 .text.felica_sniff
                0x000000000012bf88      0x174 obj/felica.o
                0x000000000012bf88                felica_sniff
 .text.felica_sim_lite
                0x000000000012c0fc      0x244 obj/felica.o
                0x000000000012c0fc                felica_sim_lite
 .text.felica_dump_lite_s
                0x000000000012c340      0x1d4 obj/felica.o
                0x000000000012c340                felica_dump_lite_s
 .text.ModInfo  0x000000000012c514       0x14 obj/lf_samyrun.o
                0x000000000012c514                ModInfo
 .text.RunMod   0x000000000012c528      0x1f4 obj/lf_samyrun.o
                0x000000000012c528                RunMod
 .text.zx8211_setup_read
                0x000000000012c71c       0x64 obj/lfzx.o
 .text.zx8211_read
                0x000000000012c780       0xa0 obj/lfzx.o
                0x000000000012c780                zx8211_read
 .text.zx8211_write
                0x000000000012c820       0x1a obj/lfzx.o
                0x000000000012c820                zx8211_write
 *fill*         0x000000000012c83a        0x2 
 .text.print_debug_level
                0x000000000012c83c       0x68 obj/appmain.o
 .text.tearoff_hook
                0x000000000012c8a4       0x50 obj/appmain.o
                0x000000000012c8a4                tearoff_hook
 .text.hf_field_off
                0x000000000012c8f4       0x20 obj/appmain.o
                0x000000000012c8f4                hf_field_off
 .text.send_wtx
                0x000000000012c914       0x28 obj/appmain.o
                0x000000000012c914                send_wtx
 .text.SumAdc   0x000000000012c93c       0x58 obj/appmain.o
                0x000000000012c93c                SumAdc
 .text.AvgAdc   0x000000000012c994       0x14 obj/appmain.o
                0x000000000012c994                AvgAdc
 .text.print_stack_usage
                0x000000000012c9a8       0x34 obj/appmain.o
                0x000000000012c9a8                print_stack_usage
 .text.ReadMem  0x000000000012c9dc       0x30 obj/appmain.o
                0x000000000012c9dc                ReadMem
 .text.StandAloneMode
                0x000000000012ca0c       0x3c obj/appmain.o
                0x000000000012ca0c                StandAloneMode
 .text.ListenReaderField
                0x000000000012ca48      0x348 obj/appmain.o
                0x000000000012ca48                ListenReaderField
 .text.AppMain  0x000000000012cd90     0x2d98 obj/appmain.o
                0x000000000012cd90                AppMain
 .text.kvsprintf
                0x000000000012fb28      0x7b0 obj/printf.o
                0x000000000012fb28                kvsprintf
 .text.sprintf  0x00000000001302d8       0x1a obj/printf.o
                0x00000000001302d8                sprintf
 .text.DbpStringEx
                0x00000000001302f2       0x34 obj/dbprint.o
                0x00000000001302f2                DbpStringEx
 .text.DbpString
                0x0000000000130326       0x18 obj/dbprint.o
                0x0000000000130326                DbpString
 .text.Dbprintf
                0x000000000013033e       0x36 obj/dbprint.o
                0x000000000013033e                Dbprintf
 .text.Dbhexdump
                0x0000000000130374       0x80 obj/dbprint.o
                0x0000000000130374                Dbhexdump
 .text.print_result
                0x00000000001303f4       0xb8 obj/dbprint.o
                0x00000000001303f4                print_result
 .text.FormatVersionInformation
                0x00000000001304ac      0x110 obj/commonutil.o
                0x00000000001304ac                FormatVersionInformation
 .text.reflect  0x00000000001305bc       0x28 obj/commonutil.o
                0x00000000001305bc                reflect
 .text.reflect8
                0x00000000001305e4       0x34 obj/commonutil.o
                0x00000000001305e4                reflect8
 .text.reflect16
                0x0000000000130618       0x8a obj/commonutil.o
                0x0000000000130618                reflect16
 *fill*         0x00000000001306a2        0x2 
 .text.reflect32
                0x00000000001306a4       0x60 obj/commonutil.o
                0x00000000001306a4                reflect32
 .text.num_to_bytes
                0x0000000000130704       0x18 obj/commonutil.o
                0x0000000000130704                num_to_bytes
 .text.bytes_to_num
                0x000000000013071c       0x24 obj/commonutil.o
                0x000000000013071c                bytes_to_num
 .text.Uint4byteToMemBe
                0x0000000000130740       0x10 obj/commonutil.o
                0x0000000000130740                Uint4byteToMemBe
 .text.rol      0x0000000000130750       0x1e obj/commonutil.o
                0x0000000000130750                rol
 .text.le24toh  0x000000000013076e       0x12 obj/commonutil.o
                0x000000000013076e                le24toh
 .text.htole24  0x0000000000130780        0xc obj/commonutil.o
                0x0000000000130780                htole24
 .text.nbytes   0x000000000013078c       0x10 obj/util.o
                0x000000000013078c                nbytes
 .text.LEDsoff  0x000000000013079c       0x2c obj/util.o
                0x000000000013079c                LEDsoff
 .text.SpinOff  0x00000000001307c8       0x38 obj/util.o
                0x00000000001307c8                SpinOff
 .text.SpinErr  0x0000000000130800       0xc4 obj/util.o
                0x0000000000130800                SpinErr
 .text.SpinDown
                0x00000000001308c4       0x68 obj/util.o
                0x00000000001308c4                SpinDown
 .text.SpinUp   0x000000000013092c       0x68 obj/util.o
                0x000000000013092c                SpinUp
 .text.BUTTON_HELD
                0x0000000000130994       0xa8 obj/util.o
                0x0000000000130994                BUTTON_HELD
 .text.data_available
                0x0000000000130a3c        0xc obj/util.o
                0x0000000000130a3c                data_available
 .text.memcpy   0x0000000000130a48       0x18 obj/string.o
                0x0000000000130a48                memcpy
 .text.memmove  0x0000000000130a60       0x2a obj/string.o
                0x0000000000130a60                memmove
 .text.memset   0x0000000000130a8a       0x18 obj/string.o
                0x0000000000130a8a                memset
 .text.memcmp   0x0000000000130aa2       0x22 obj/string.o
                0x0000000000130aa2                memcmp
 .text.strlen   0x0000000000130ac4       0x10 obj/string.o
                0x0000000000130ac4                strlen
 .text.strncat  0x0000000000130ad4       0x30 obj/string.o
                0x0000000000130ad4                strncat
 .text.strcat   0x0000000000130b04       0x22 obj/string.o
                0x0000000000130b04                strcat
 .text.strcpy   0x0000000000130b26        0xe obj/string.o
                0x0000000000130b26                strcpy
 .text.strncpy  0x0000000000130b34       0x32 obj/string.o
                0x0000000000130b34                strncpy
 .text.strcmp   0x0000000000130b66       0x1e obj/string.o
                0x0000000000130b66                strcmp
 .text.__strtok_r
                0x0000000000130b84       0x5a obj/string.o
                0x0000000000130b84                __strtok_r
 *fill*         0x0000000000130bde        0x2 
 .text.strtok   0x0000000000130be0       0x14 obj/string.o
                0x0000000000130be0                strtok
 .text.BigBuf_initialize
                0x0000000000130bf4       0x2c obj/BigBuf.o
                0x0000000000130bf4                BigBuf_initialize
 .text.BigBuf_get_addr
                0x0000000000130c20        0x8 obj/BigBuf.o
                0x0000000000130c20                BigBuf_get_addr
 .text.BigBuf_get_size
                0x0000000000130c28        0xc obj/BigBuf.o
                0x0000000000130c28                BigBuf_get_size
 .text.BigBuf_Clear_ext
                0x0000000000130c34       0x38 obj/BigBuf.o
                0x0000000000130c34                BigBuf_Clear_ext
 .text.BigBuf_Clear
                0x0000000000130c6c        0xe obj/BigBuf.o
                0x0000000000130c6c                BigBuf_Clear
 *fill*         0x0000000000130c7a        0x2 
 .text.BigBuf_Clear_keep_EM
                0x0000000000130c7c       0x1c obj/BigBuf.o
                0x0000000000130c7c                BigBuf_Clear_keep_EM
 .text.BigBuf_malloc
                0x0000000000130c98       0x28 obj/BigBuf.o
                0x0000000000130c98                BigBuf_malloc
 .text.BigBuf_get_EM_addr
                0x0000000000130cc0       0x20 obj/BigBuf.o
                0x0000000000130cc0                BigBuf_get_EM_addr
 .text.BigBuf_Clear_EM
                0x0000000000130ce0       0x16 obj/BigBuf.o
                0x0000000000130ce0                BigBuf_Clear_EM
 .text.BigBuf_calloc
                0x0000000000130cf6       0x1c obj/BigBuf.o
                0x0000000000130cf6                BigBuf_calloc
 *fill*         0x0000000000130d12        0x2 
 .text.BigBuf_free
                0x0000000000130d14       0x34 obj/BigBuf.o
                0x0000000000130d14                BigBuf_free
 .text.BigBuf_free_keep_EM
                0x0000000000130d48       0x44 obj/BigBuf.o
                0x0000000000130d48                BigBuf_free_keep_EM
 .text.BigBuf_print_status
                0x0000000000130d8c       0xdc obj/BigBuf.o
                0x0000000000130d8c                BigBuf_print_status
 .text.BigBuf_max_traceLen
                0x0000000000130e68       0x10 obj/BigBuf.o
                0x0000000000130e68                BigBuf_max_traceLen
 .text.clear_trace
                0x0000000000130e78        0xc obj/BigBuf.o
                0x0000000000130e78                clear_trace
 .text.set_tracelen
                0x0000000000130e84        0xc obj/BigBuf.o
                0x0000000000130e84                set_tracelen
 .text.set_tracing
                0x0000000000130e90        0xc obj/BigBuf.o
                0x0000000000130e90                set_tracing
 .text.get_tracing
                0x0000000000130e9c        0xc obj/BigBuf.o
                0x0000000000130e9c                get_tracing
 .text.BigBuf_get_traceLen
                0x0000000000130ea8        0xc obj/BigBuf.o
                0x0000000000130ea8                BigBuf_get_traceLen
 .text.LogTrace_ISO15693
                0x0000000000130eb4       0x28 obj/BigBuf.o
                0x0000000000130eb4                LogTrace_ISO15693
 .text.emlSet   0x0000000000130edc       0x38 obj/BigBuf.o
                0x0000000000130edc                emlSet
 .text.get_tosend
                0x0000000000130f14       0x24 obj/BigBuf.o
                0x0000000000130f14                get_tosend
 .text.tosend_reset
                0x0000000000130f38       0x14 obj/BigBuf.o
                0x0000000000130f38                tosend_reset
 .text.tosend_stuffbit
                0x0000000000130f4c       0x68 obj/BigBuf.o
                0x0000000000130f4c                tosend_stuffbit
 .text.get_dma16
                0x0000000000130fb4       0x20 obj/BigBuf.o
                0x0000000000130fb4                get_dma16
 .text.get_dma8
                0x0000000000130fd4       0x20 obj/BigBuf.o
                0x0000000000130fd4                get_dma8
 .text.SpinDelayUsPrecision
                0x0000000000130ff4       0x60 obj/ticks.o
                0x0000000000130ff4                SpinDelayUsPrecision
 .text.SpinDelayUs
                0x0000000000131054       0x64 obj/ticks.o
                0x0000000000131054                SpinDelayUs
 .text.SpinDelay
                0x00000000001310b8       0x38 obj/ticks.o
                0x00000000001310b8                SpinDelay
 .text.StartTickCount
                0x00000000001310f0       0x3c obj/ticks.o
                0x00000000001310f0                StartTickCount
 .text.StartCountSspClk
                0x000000000013112c       0xf0 obj/ticks.o
                0x000000000013112c                StartCountSspClk
 .text.ResetSspClk
                0x000000000013121c       0x24 obj/ticks.o
                0x000000000013121c                ResetSspClk
 .text.StartCountUS
                0x0000000000131240       0x58 obj/ticks.o
                0x0000000000131240                StartCountUS
 .text.StartTicks
                0x0000000000131298       0x60 obj/ticks.o
                0x0000000000131298                StartTicks
 .text.GetTicks
                0x00000000001312f8       0x24 obj/ticks.o
                0x00000000001312f8                GetTicks
 .text.WaitTicks
                0x000000000013131c       0x1a obj/ticks.o
                0x000000000013131c                WaitTicks
 *fill*         0x0000000000131336        0x2 
 .text.WaitMS   0x0000000000131338       0x18 obj/ticks.o
                0x0000000000131338                WaitMS
 .text.WaitUS   0x0000000000131350       0x16 obj/ticks.o
                0x0000000000131350                WaitUS
 *fill*         0x0000000000131366        0x2 
 .text.StopTicks
                0x0000000000131368       0x14 obj/ticks.o
                0x0000000000131368                StopTicks
 .text.mck_from_pll_to_slck
                0x000000000013137c       0x28 obj/clocks.o
                0x000000000013137c                mck_from_pll_to_slck
 .text.mck_from_slck_to_pll
                0x00000000001313a4       0x40 obj/clocks.o
                0x00000000001313a4                mck_from_slck_to_pll
 .text.HfSniff  0x00000000001313e4      0x228 obj/hfsnoop.o
                0x00000000001313e4                HfSniff
 .text.HfPlotDownload
                0x000000000013160c       0xec obj/hfsnoop.o
                0x000000000013160c                HfPlotDownload
 .text.ul_ev1_pwdgenB
                0x00000000001316f8       0x3c obj/generator.o
                0x00000000001316f8                ul_ev1_pwdgenB
 .text.get_from_fpga_combined_stream
                0x0000000000131734       0xcc obj/fpgaloader.o
 .text.get_from_fpga_stream
                0x0000000000131800       0x6c obj/fpgaloader.o
 .text.SetupSpi
                0x000000000013186c       0x7c obj/fpgaloader.o
                0x000000000013186c                SetupSpi
 .text.FpgaSetupSsc
                0x00000000001318e8       0xa0 obj/fpgaloader.o
                0x00000000001318e8                FpgaSetupSsc
 .text.FpgaSetupSscDma
                0x0000000000131988       0x34 obj/fpgaloader.o
                0x0000000000131988                FpgaSetupSscDma
 .text.FpgaSendCommand
                0x00000000001319bc       0x44 obj/fpgaloader.o
                0x00000000001319bc                FpgaSendCommand
 .text.FpgaWriteConfWord
                0x0000000000131a00        0xc obj/fpgaloader.o
                0x0000000000131a00                FpgaWriteConfWord
 .text.FpgaEnableTracing
                0x0000000000131a0c        0xc obj/fpgaloader.o
                0x0000000000131a0c                FpgaEnableTracing
 .text.FpgaDownloadAndGo
                0x0000000000131a18      0x568 obj/fpgaloader.o
                0x0000000000131a18                FpgaDownloadAndGo
 .text.FpgaDisableTracing
                0x0000000000131f80        0xc obj/fpgaloader.o
                0x0000000000131f80                FpgaDisableTracing
 .text.SetAdcMuxFor
                0x0000000000131f8c       0x50 obj/fpgaloader.o
                0x0000000000131f8c                SetAdcMuxFor
 .text.Fpga_print_status
                0x0000000000131fdc       0x40 obj/fpgaloader.o
                0x0000000000131fdc                Fpga_print_status
 .text.switch_off
                0x000000000013201c       0x60 obj/fpgaloader.o
                0x000000000013201c                switch_off
 .text.usb_update_serial
                0x000000000013207c       0xb8 obj/usb_cdc.o
                0x000000000013207c                usb_update_serial
 .text.usb_disable
                0x0000000000132134       0x28 obj/usb_cdc.o
                0x0000000000132134                usb_disable
 .text.usb_enable
                0x000000000013215c       0xd4 obj/usb_cdc.o
                0x000000000013215c                usb_enable
 .text.AT91F_USB_SendData
                0x0000000000132230      0x144 obj/usb_cdc.o
                0x0000000000132230                AT91F_USB_SendData
 .text.AT91F_USB_SendZlp
                0x0000000000132374       0x7c obj/usb_cdc.o
                0x0000000000132374                AT91F_USB_SendZlp
 .text.AT91F_USB_SendStall
                0x00000000001323f0       0x7c obj/usb_cdc.o
                0x00000000001323f0                AT91F_USB_SendStall
 .text.AT91F_CDC_Enumerate
                0x000000000013246c      0x46c obj/usb_cdc.o
                0x000000000013246c                AT91F_CDC_Enumerate
 .text.usb_check
                0x00000000001328d8       0x84 obj/usb_cdc.o
                0x00000000001328d8                usb_check
 .text.usb_poll_validate_length
                0x000000000013295c       0x50 obj/usb_cdc.o
                0x000000000013295c                usb_poll_validate_length
 .text.usb_read_ng
                0x00000000001329ac      0x18c obj/usb_cdc.o
                0x00000000001329ac                usb_read_ng
 .text.usb_write
                0x0000000000132b38      0x240 obj/usb_cdc.o
                0x0000000000132b38                usb_write
 .text.reply_ng_internal
                0x0000000000132d78      0x178 obj/cmd.o
 .text.receive_ng_internal.constprop.0
                0x0000000000132ef0      0x240 obj/cmd.o
 .text.reply_old
                0x0000000000133130       0xec obj/cmd.o
                0x0000000000133130                reply_old
 .text.reply_ng
                0x000000000013321c       0x1c obj/cmd.o
                0x000000000013321c                reply_ng
 .text.reply_mix
                0x0000000000133238       0xa4 obj/cmd.o
                0x0000000000133238                reply_mix
 .text.receive_ng
                0x00000000001332dc       0x28 obj/cmd.o
                0x00000000001332dc                receive_ng
 *fill*         0x0000000000133304        0x4 
 .text.receive_ng.__stub
                0x0000000000133308      0x18c linker stubs
 *(.eh_frame)
 *(.glue_7)
 .glue_7        0x00000000001334d0        0x0 linker stubs
 *(.glue_7t)
 .glue_7t       0x00000000001334d0        0x0 linker stubs

.vfp11_veneer   0x00000000001334d0        0x0
 .vfp11_veneer  0x00000000001334d0        0x0 linker stubs

.v4_bx          0x00000000001334d0        0x0
 .v4_bx         0x00000000001334d0        0x0 linker stubs

.iplt           0x00000000001334d0        0x0
 .iplt          0x00000000001334d0        0x0 obj/fpga_version_info.o

.rodata         0x00000000001334d0    0x20530
 *(.rodata)
 .rodata        0x00000000001334d0       0x49 obj/iso15693.o
 .rodata        0x0000000000133519       0xc0 obj/lfops.o
 .rodata        0x00000000001335d9       0x19 obj/pcf7931.o
 .rodata        0x00000000001335f2       0xc2 obj/lfdemod.o
 .rodata        0x00000000001336b4        0x8 obj/flashmem.o
 .rodata        0x00000000001336bc      0x1a6 obj/i2c.o
 .rodata        0x0000000000133862        0x5 obj/hitag2.o
 .rodata        0x0000000000133867        0x3 obj/em4x70.o
 .rodata        0x000000000013386a       0x91 obj/iso14443a.o
 .rodata        0x00000000001338fb       0x1e obj/mifareutil.o
 .rodata        0x0000000000133919       0xaf obj/mifarecmd.o
 .rodata        0x00000000001339c8        0x3 obj/mifaresim.o
 .rodata        0x00000000001339cb       0x29 obj/iso14443b.o
 .rodata        0x00000000001339f4       0x35 obj/mifaredesfire.o
 .rodata        0x0000000000133a29       0x1d obj/iclass.o
 .rodata        0x0000000000133a46        0x8 obj/optimized_ikeys.o
 .rodata        0x0000000000133a4e        0x8 obj/optimized_cipher.o
 .rodata        0x0000000000133a56       0x92 obj/felica.o
 *(.rodata.*)
 .rodata.str1.1
                0x0000000000133ae8       0xaa obj/fpga_version_info.o
 *fill*         0x0000000000133b92        0x2 
 .rodata.g_fpga_bitstream_num
                0x0000000000133b94        0x4 obj/fpga_version_info.o
                0x0000000000133b94                g_fpga_bitstream_num
 .rodata.g_fpga_version_information
                0x0000000000133b98       0x10 obj/fpga_version_info.o
                0x0000000000133b98                g_fpga_version_information
 .rodata.GetIso15693AnswerFromTag.str1.1
                0x0000000000133ba8      0x136 obj/iso15693.o
 .rodata.GetIso15693CommandFromReader.str1.1
                0x0000000000133cde       0x8e obj/iso15693.o
 .rodata.AcquireRawAdcSamplesIso15693.str1.1
                0x0000000000133d6c       0x1c obj/iso15693.o
 .rodata.SniffIso15693.str1.1
                0x0000000000133d88      0x18b obj/iso15693.o
                                        0x18c (size before relaxing)
 .rodata.ReaderIso15693.str1.1
                0x0000000000133f13      0x157 obj/iso15693.o
                                        0x15c (size before relaxing)
 .rodata.SimTagIso15693.str1.1
                0x000000000013406a       0x58 obj/iso15693.o
 .rodata.BruteforceIso15693Afi.str1.1
                0x00000000001340c2       0x39 obj/iso15693.o
 .rodata.encode15_lut
                0x00000000001340fb        0x4 obj/iso15693.o
 .rodata.encode_4bits
                0x00000000001340ff       0x10 obj/iso15693.o
 .rodata.iso15693_sprintUID.str1.1
                0x000000000013410f       0x39 obj/iso15693tools.o
                                         0x28 (size before relaxing)
 .rodata.SimulateThinFilm.str1.1
                0x000000000013410f       0x1d obj/thinfilm.o
 .rodata.T55xx_SetBits.str1.1
                0x000000000013412c       0x1b obj/lfops.o
 .rodata.printT55xxConfig.str1.1
                0x0000000000134147      0x1e8 obj/lfops.o
                                        0x1f0 (size before relaxing)
 .rodata.setT55xxConfig.str1.1
                0x000000000013432f       0x23 obj/lfops.o
 .rodata.loadT55xxConfig.str1.1
                0x0000000000134352       0x1a obj/lfops.o
 .rodata.ReadTItag.str1.1
                0x000000000013436c       0xd7 obj/lfops.o
 .rodata.WriteTItag.str1.1
                0x0000000000134443       0x3f obj/lfops.o
 .rodata.CmdFSKsimTAGEx.str1.1
                0x0000000000134482       0x3f obj/lfops.o
 .rodata.CmdHIDsimTAGEx.str1.1
                0x00000000001344c1       0x5c obj/lfops.o
 .rodata.CmdASKsimTAG.str1.1
                0x000000000013451d       0x8f obj/lfops.o
 .rodata.CmdPSKsimTAG.str1.1
                0x00000000001345ac       0x32 obj/lfops.o
 .rodata.CmdNRZsimTAG.str1.1
                0x00000000001345de       0x39 obj/lfops.o
 .rodata.lf_hid_watch.str1.1
                0x0000000000134617       0x82 obj/lfops.o
 .rodata.lf_awid_watch.str1.1
                0x0000000000134699      0x12e obj/lfops.o
 .rodata.lf_em410x_watch.str1.1
                0x00000000001347c7      0x10d obj/lfops.o
 .rodata.lf_io_watch.str1.1
                0x00000000001348d4       0x34 obj/lfops.o
 .rodata.ModThenAcquireRawAdcSamples125k.str1.1
                0x0000000000134908       0x3d obj/lfops.o
 .rodata.T55xx_SendCMD.str1.1
                0x0000000000134945       0x19 obj/lfops.o
 .rodata.T55xxDangerousRawTest.str1.1
                0x000000000013495e       0x1b obj/lfops.o
 .rodata.T55xx_ChkPwds.str1.1
                0x0000000000134979       0xa8 obj/lfops.o
 .rodata.EM4xBruteforce.str1.1
                0x0000000000134a21       0x7f obj/lfops.o
                                         0x81 (size before relaxing)
 .rodata.WriteEM4x05.constprop.0.str1.1
                0x0000000000134aa0       0x32 obj/lfops.o
 .rodata.copy_em410x_to_t55xx.str1.1
                0x0000000000134ad2       0x59 obj/lfops.o
 .rodata.CopyHIDtoT55x7.str1.1
                0x0000000000134b2b       0x58 obj/lfops.o
 .rodata.printLFConfig.str1.1
                0x0000000000134b83       0xf1 obj/lfsampling.o
                                         0xf2 (size before relaxing)
 .rodata.printSamples.str1.1
                0x0000000000134c74       0x6a obj/lfsampling.o
 .rodata.initSampleBufferEx.str1.1
                0x0000000000134cde       0x1f obj/lfsampling.o
 .rodata.DoAcquisition.str1.1
                0x0000000000134cfd       0x86 obj/lfsampling.o
 .rodata.DemodPCF7931.str1.1
                0x0000000000134d83       0x2b obj/pcf7931.o
 .rodata.ReadPCF7931.str1.1
                0x0000000000134dae      0x145 obj/pcf7931.o
                                        0x16f (size before relaxing)
 .rodata.SendCmdPCF7931.str1.1
                0x0000000000134ef3       0x16 obj/pcf7931.o
 .rodata.WritePCF7931.str1.1
                0x0000000000134f09       0xe3 obj/pcf7931.o
 .rodata.getClosestClock.str1.1
                0x0000000000134fec        0xb obj/lfdemod.o
 .rodata.findModStart.str1.1
                0x0000000000134ff7       0x37 obj/lfdemod.o
 .rodata.computeSignalProperties.str1.1
                0x000000000013502e       0xb2 obj/lfdemod.o
 .rodata.preambleSearchEx.str1.1
                0x00000000001350e0       0x62 obj/lfdemod.o
 .rodata.DetectCleanAskWave.str1.1
                0x0000000000135142       0x29 obj/lfdemod.o
 .rodata.DetectStrongAskClock.str1.1
                0x000000000013516b       0x2a obj/lfdemod.o
 .rodata.DetectASKClock.str1.1
                0x0000000000135195       0xf8 obj/lfdemod.o
 .rodata.manrawdecode.str1.1
                0x000000000013528d       0x2c obj/lfdemod.o
 .rodata.askdemod_ext.str1.1
                0x00000000001352b9      0x235 obj/lfdemod.o
 .rodata.fskdemod.str1.1
                0x00000000001354ee       0xcc obj/lfdemod.o
 .rodata.lf_sample_mean.str1.1
                0x00000000001355ba       0x12 obj/lfadc.o
 .rodata.dec64table
                0x00000000001355cc       0x20 obj/lz4.o
 .rodata.inc32table
                0x00000000001355ec       0x20 obj/lz4.o
 .rodata.read_byte.str1.1
                0x000000000013560c       0x1f obj/legicrf.o
 .rodata.LegicRfWriter.str1.1
                0x000000000013562b       0x26 obj/legicrf.o
 .rodata.LegicRfSimulate.str1.1
                0x0000000000135651       0x8b obj/legicrfsim.o
                                         0xaa (size before relaxing)
 .rodata.FlashmemSetSpiBaudrate.str1.1
                0x00000000001356dc       0x15 obj/flashmem.o
 .rodata.FlashStop.str1.1
                0x00000000001356f1        0xa obj/flashmem.o
 .rodata.Flashmem_print_info.str1.1
                0x00000000001356fb       0xd6 obj/flashmem.o
 .rodata.Flashmem_print_status.str1.1
                0x00000000001357d1      0x234 obj/flashmem.o
 .rodata.Flash_WriteDataCont.str1.1
                0x0000000000135a05       0x58 obj/flashmem.o
 .rodata.Flash_WriteEnable.str1.1
                0x0000000000135a5d       0x14 obj/flashmem.o
 .rodata.Flash_WipeMemoryPage.str1.1
                0x0000000000135a71       0x1a obj/flashmem.o
 .rodata.hitag2_write_page.str1.1
                0x0000000000135a8b       0xb8 obj/hitag2.o
 .rodata.hitag2_password.str1.1
                0x0000000000135b43       0x2c obj/hitag2.o
 .rodata.hitag2_crypto.str1.1
                0x0000000000135b6f       0x4b obj/hitag2.o
 .rodata.SniffHitag2.str1.1
                0x0000000000135bba       0x48 obj/hitag2.o
 .rodata.SimulateHitag2.str1.1
                0x0000000000135c02       0xf0 obj/hitag2.o
 .rodata.ReaderHitag.str1.1
                0x0000000000135cf2      0x2c3 obj/hitag2.o
 .rodata.WriterHitag.str1.1
                0x0000000000135fb5       0x3c obj/hitag2.o
 .rodata.selectHitagS.constprop.0.str1.1
                0x0000000000135ff1       0xd9 obj/hitagS.o
                                        0x13c (size before relaxing)
 .rodata.SimulateHitagSTag.str1.1
                0x00000000001360ca      0x174 obj/hitagS.o
                                        0x17a (size before relaxing)
 .rodata.ReadHitagS.str1.1
                0x000000000013623e       0x7a obj/hitagS.o
 .rodata.WritePageHitagS.str1.1
                0x00000000001362b8       0x84 obj/hitagS.o
 .rodata.Hitag_check_challenges.str1.1
                0x000000000013633c       0x50 obj/hitagS.o
                                         0x58 (size before relaxing)
 .rodata.login.str1.1
                0x000000000013638c       0x19 obj/em4x50.o
 .rodata.em4x50_brute.str1.1
                0x00000000001363a5       0x65 obj/em4x50.o
 .rodata.standard_read.str1.1
                0x000000000013640a       0x1c obj/em4x50.o
 .rodata.bits2bytes.str1.1
                0x0000000000136426       0x2e obj/em4x70.o
 .rodata.em4x70_receive.str1.1
                0x0000000000136454       0x1b obj/em4x70.o
 .rodata.send_command_and_read.str1.1
                0x000000000013646f       0x2e obj/em4x70.o
 .rodata.send_pin.str1.1
                0x000000000013649d       0x14 obj/em4x70.o
 .rodata.authenticate.str1.1
                0x00000000001364b1        0xc obj/em4x70.o
 .rodata.em4x70_brute.str1.1
                0x00000000001364bd       0x84 obj/em4x70.o
 .rodata.rdv40_spiffs_llerase.str1.1
                0x0000000000136541       0x63 obj/spiffs.o
 .rodata.remove_from_spiffs.str1.1
                0x00000000001365a4       0x63 obj/spiffs.o
                                          0xa (size before relaxing)
 .rodata.rdv40_spiffs_mount.str1.1
                0x00000000001365a4       0x1e obj/spiffs.o
 .rodata.rdv40_spiffs_unmount.str1.1
                0x00000000001365c2       0x1a obj/spiffs.o
 .rodata.write_to_spiffs.str1.1
                0x00000000001365dc        0xd obj/spiffs.o
 .rodata.rdv40_spiffs_read_as_symlink.str1.1
                0x00000000001365e9       0x4d obj/spiffs.o
 .rodata.rdv40_spiffs_read_as_filetype.str1.1
                0x0000000000136636       0xc6 obj/spiffs.o
 .rodata.rdv40_spiffs_safe_print_fsinfo.str1.1
                0x00000000001366fc      0x175 obj/spiffs.o
                                        0x176 (size before relaxing)
 .rodata.rdv40_spiffs_safe_print_tree.str1.1
                0x0000000000136871       0x2d obj/spiffs.o
                                         0x31 (size before relaxing)
 .rodata.rdv40_spiffs_safe_wipe.str1.1
                0x000000000013689e       0x10 obj/spiffs.o
                                         0x1b (size before relaxing)
 .rodata.test_spiffs.str1.1
                0x00000000001368ae      0x174 obj/spiffs.o
                                        0x1b2 (size before relaxing)
 .rodata.HfSimulateTkm.str1.1
                0x0000000000136a22       0x22 obj/hfops.o
 .rodata.printHf14aConfig.str1.1
                0x0000000000136a44      0x25e obj/iso14443a.o
                                        0x25f (size before relaxing)
 .rodata.prepare_tag_modulation.str1.1
                0x0000000000136ca2       0x42 obj/iso14443a.o
 .rodata.SimulateIso14443aInit.str1.1
                0x0000000000136ce4       0x76 obj/iso14443a.o
 .rodata.EmGetCmd.str1.1
                0x0000000000136d5a       0x29 obj/iso14443a.o
 .rodata.GetIso14443aAnswerFromTag_Thinfilm.str1.1
                0x0000000000136d83       0x4e obj/iso14443a.o
 .rodata.ReaderTransmitBitsPar.str1.1
                0x0000000000136dd1       0x5e obj/iso14443a.o
 .rodata.GetATQA.str1.1
                0x0000000000136e2f        0x6 obj/iso14443a.o
 .rodata.iso14443a_select_cardEx.str1.1
                0x0000000000136e35      0x14f obj/iso14443a.o
 .rodata.str1.1
                0x0000000000136f84       0x8f obj/iso14443a.o
                                         0xaf (size before relaxing)
 .rodata.SimulateIso14443aTag.str1.1
                0x0000000000137013       0xdf obj/iso14443a.o
 .rodata.iso14443a_antifuzz.str1.1
                0x00000000001370f2       0x63 obj/iso14443a.o
 .rodata.iso14443a_antifuzz.cst1
                0x0000000000137155        0x2 obj/iso14443a.o
 .rodata.ReaderMifare.str1.1
                0x0000000000137157      0x182 obj/iso14443a.o
 .rodata.DetectNACKbug.str1.1
                0x00000000001372d9       0x1a obj/iso14443a.o
 .rodata.Mod_Manchester_LUT
                0x00000000001372f3       0x10 obj/iso14443a.o
 .rodata.Mod_Miller_LUT
                0x0000000000137303       0x10 obj/iso14443a.o
 .rodata.g_odd_byte_parity
                0x0000000000137313      0x100 obj/iso14443a.o
 .rodata.mifare_sendcmd.str1.1
                0x0000000000137413       0x1f obj/mifareutil.o
 .rodata.mifare_sendcmd_short.str1.1
                0x0000000000137432        0x1 obj/mifareutil.o
 .rodata.mifare_ultra_readblockEx.str1.1
                0x0000000000137432       0x49 obj/mifareutil.o
 .rodata.mifare_classic_authex_2.str1.1
                0x000000000013747b       0x80 obj/mifareutil.o
 .rodata.mifare_classic_readblock_ex.str1.1
                0x00000000001374fb       0x46 obj/mifareutil.o
 .rodata.mifare_ul_ev1_auth.str1.1
                0x0000000000137541       0x4b obj/mifareutil.o
 .rodata.mifare_ultra_auth.str1.1
                0x000000000013758c      0x106 obj/mifareutil.o
                                        0x131 (size before relaxing)
 .rodata.mifare_classic_writeblock_ex.str1.1
                0x0000000000137692       0x1b obj/mifareutil.o
 .rodata.mifare_ultra_writeblock_compat.str1.1
                0x00000000001376ad       0x35 obj/mifareutil.o
 .rodata.mifare_classic_halt_ex.str1.1
                0x00000000001376e2       0x1f obj/mifareutil.o
 .rodata.emlClearMem.str1.1
                0x0000000000137701       0x11 obj/mifareutil.o
 .rodata.SectorTrailer.str1.1
                0x0000000000137712       0x21 obj/mifareutil.o
 .rodata.g_odd_byte_parity
                0x0000000000137733      0x100 obj/mifareutil.o
 .rodata.chkKey_scanB.constprop.0.str1.1
                0x0000000000137833       0x20 obj/mifarecmd.o
 .rodata.chkKey_loopBonly.constprop.0.str1.1
                0x0000000000137853       0x23 obj/mifarecmd.o
 .rodata.chkKey_scanA.constprop.0.str1.1
                0x0000000000137876       0x20 obj/mifarecmd.o
 .rodata.MifareReadBlock.str1.1
                0x0000000000137896       0x25 obj/mifarecmd.o
                                         0x4d (size before relaxing)
 .rodata.MifareUC_Auth.str1.1
                0x00000000001378bb       0x16 obj/mifarecmd.o
 .rodata.MifareUReadBlock.str1.1
                0x00000000001378d1       0x1c obj/mifarecmd.o
 .rodata.MifareReadSector.str1.1
                0x00000000001378ed       0x35 obj/mifarecmd.o
 .rodata.MifareUReadCard.str1.1
                0x0000000000137922       0x61 obj/mifarecmd.o
 .rodata.MifareWriteBlock.str1.1
                0x0000000000137983       0x12 obj/mifarecmd.o
 .rodata.MifareValue.str1.1
                0x0000000000137995       0x43 obj/mifarecmd.o
 .rodata.MifareAcquireNonces.str1.1
                0x00000000001379d8       0x80 obj/mifarecmd.o
                                         0x81 (size before relaxing)
 .rodata.MifareAcquireEncryptedNonces.str1.1
                0x0000000000137a58       0xec obj/mifarecmd.o
 .rodata.MifareNested.str1.1
                0x0000000000137b44      0x189 obj/mifarecmd.o
 .rodata.MifareChkKeys.str1.1
                0x0000000000137ccd       0x42 obj/mifarecmd.o
 .rodata.MifarePersonalizeUID.str1.1
                0x0000000000137d0f       0x10 obj/mifarecmd.o
 .rodata.MifareECardLoad.str1.1
                0x0000000000137d0f       0x79 obj/mifarecmd.o
 .rodata.MifareChkKeys_fast.str1.1
                0x0000000000137d88       0x26 obj/mifarecmd.o
 .rodata.MifareHasStaticNonce.str1.1
                0x0000000000137dae       0x15 obj/mifarecmd.o
                                         0x17 (size before relaxing)
 .rodata.MifareCSetBlock.str1.1
                0x0000000000137dc3       0x7d obj/mifarecmd.o
 .rodata.MifareCGetBlock.str1.1
                0x0000000000137e40       0x1e obj/mifarecmd.o
 .rodata.DoGen3Cmd.str1.1
                0x0000000000137e5e       0x1d obj/mifarecmd.o
 .rodata.MifareGen3UID.str1.1
                0x0000000000137e7b       0x17 obj/mifarecmd.o
 .rodata.MifareGen3Blk.str1.1
                0x0000000000137e92       0x3b obj/mifarecmd.o
 .rodata.MifareSetMod.str1.1
                0x0000000000137ecd       0x29 obj/mifarecmd.o
 .rodata.MifareU_Otp_Tearoff.str1.1
                0x0000000000137ef6       0x17 obj/mifarecmd.o
 .rodata.g_odd_byte_parity
                0x0000000000137f0d      0x100 obj/mifarecmd.o
 .rodata.EPA_Read_CardAccess.str1.1
                0x000000000013800d       0x3e obj/epa.o
 .rodata.EPA_PACE_MSE_Set_AT.str1.1
                0x000000000013804b       0x12 obj/epa.o
 .rodata.EPA_Setup.str1.1
                0x000000000013805d       0x30 obj/epa.o
 .rodata.EPA_PACE_Simulate.str1.1
                0x000000000013808d       0x22 obj/epa.o
                                         0x2c (size before relaxing)
 .rodata.apdu_general_authenticate_pace_get_nonce
                0x00000000001380af        0x7 obj/epa.o
 .rodata.apdu_mse_set_at_start
                0x00000000001380b6        0x4 obj/epa.o
 .rodata.apdu_read_binary
                0x00000000001380ba        0x5 obj/epa.o
 .rodata.apdu_select_binary_cardaccess
                0x00000000001380bf        0x7 obj/epa.o
 *fill*         0x00000000001380c6        0x2 
 .rodata.apdus_replay
                0x00000000001380c8       0x28 obj/epa.o
 .rodata.oid_pace_start
                0x00000000001380f0        0x8 obj/epa.o
 .rodata.pps    0x00000000001380f8        0x5 obj/epa.o
 .rodata.IsAccessAllowed.str1.1
                0x00000000001380fd      0x1fb obj/mifaresim.o
 .rodata.Mifare1ksim.str1.1
                0x00000000001382f8      0xdc9 obj/mifaresim.o
                                        0xe86 (size before relaxing)
 .rodata.iso14b_set_timeout.str1.1
                0x00000000001390c1       0x21 obj/iso14443b.o
 .rodata.Get14443bAnswerFromTag.str1.1
                0x00000000001390e2       0x21 obj/iso14443b.o
                                         0x28 (size before relaxing)
 .rodata.SimulateIso14443bTag.str1.1
                0x00000000001390e2       0x5f obj/iso14443b.o
                                         0x83 (size before relaxing)
 .rodata.iso14443b_select_xrx_card.str1.1
                0x0000000000139141       0x50 obj/iso14443b.o
                                         0x53 (size before relaxing)
 .rodata.iso14443b_select_card.str1.1
                0x0000000000139191       0x29 obj/iso14443b.o
 .rodata.ReadSTBlock.str1.1
                0x00000000001391ba       0x51 obj/iso14443b.o
 .rodata.SniffIso14443b.str1.1
                0x000000000013920b        0xe obj/iso14443b.o
                                        0x145 (size before relaxing)
 .rodata.SendRawCommand14443B_Ex.str1.1
                0x0000000000139219       0x19 obj/iso14443b.o
 .rodata.init_srx.0
                0x0000000000139232        0x4 obj/iso14443b.o
 .rodata.respOK.4
                0x0000000000139236        0x3 obj/iso14443b.o
 .rodata.wupb.1
                0x0000000000139239        0x5 obj/iso14443b.o
 .rodata.x_wup1.3
                0x000000000013923e        0x5 obj/iso14443b.o
 .rodata.x_wup2.2
                0x0000000000139243        0x5 obj/iso14443b.o
 .rodata.LHs    0x0000000000139248       0x40 obj/des.o
 .rodata.RHs    0x0000000000139288       0x40 obj/des.o
 .rodata.SB1    0x00000000001392c8      0x100 obj/des.o
 .rodata.SB2    0x00000000001393c8      0x100 obj/des.o
 .rodata.SB3    0x00000000001394c8      0x100 obj/des.o
 .rodata.SB4    0x00000000001395c8      0x100 obj/des.o
 .rodata.SB5    0x00000000001396c8      0x100 obj/des.o
 .rodata.SB6    0x00000000001397c8      0x100 obj/des.o
 .rodata.SB7    0x00000000001398c8      0x100 obj/des.o
 .rodata.SB8    0x00000000001399c8      0x100 obj/des.o
 .rodata.CreateAPDU.str1.1
                0x0000000000139ac8       0x17 obj/mifaredesfire.o
 .rodata.DesfireAPDU.str1.1
                0x0000000000139adf       0x12 obj/mifaredesfire.o
 .rodata.OnSuccess.str1.1
                0x0000000000139af1        0xb obj/mifaredesfire.o
 .rodata.MifareDesfireGetInformation.str1.1
                0x0000000000139af1      0x14f obj/mifaredesfire.o
                                        0x161 (size before relaxing)
 .rodata.MifareSendCommand.str1.1
                0x0000000000139c40       0x31 obj/mifaredesfire.o
 .rodata.MifareDES_Auth1.str1.1
                0x0000000000139c71      0x13e obj/mifaredesfire.o
                                        0x146 (size before relaxing)
 .rodata.FSb    0x0000000000139daf      0x100 obj/aes.o
 *fill*         0x0000000000139eaf        0x1 
 .rodata.FT0    0x0000000000139eb0      0x400 obj/aes.o
 .rodata.RCON   0x000000000013a2b0       0x28 obj/aes.o
 .rodata.RSb    0x000000000013a2d8      0x100 obj/aes.o
 .rodata.RT0    0x000000000013a3d8      0x400 obj/aes.o
 .rodata.do_iclass_simulation.str1.1
                0x000000000013a7d8       0xa8 obj/iclass.o
                                         0xb7 (size before relaxing)
 .rodata.iclass_simulate.str1.1
                0x000000000013a880       0x90 obj/iclass.o
 .rodata.iClass_Dump.str1.1
                0x000000000013a910       0x3a obj/iclass.o
 .rodata.iClass_WriteBlock.str1.1
                0x000000000013a94a        0x9 obj/iclass.o
 .rodata.iClass_Restore.str1.1
                0x000000000013a953       0x56 obj/iclass.o
 .rodata.pi     0x000000000013a9a9       0x23 obj/optimized_ikeys.o
 .rodata.opt_select_LUT
                0x000000000013a9cc      0x100 obj/optimized_cipher.o
 .rodata.iso18092_setup.str1.1
                0x000000000013aacc       0x15 obj/felica.o
 .rodata.TransmitFor18092_AsReader.constprop.0.str1.1
                0x000000000013aae1        0xf obj/felica.o
 .rodata.WaitForFelicaReply.constprop.0.str1.1
                0x000000000013aaf0       0x56 obj/felica.o
 .rodata.felica_sendraw.str1.1
                0x000000000013ab46      0x15c obj/felica.o
 .rodata.felica_sniff.str1.1
                0x000000000013aca2       0x67 obj/felica.o
 .rodata.felica_sim_lite.str1.1
                0x000000000013ad09       0x84 obj/felica.o
 .rodata.ModInfo.str1.1
                0x000000000013ad8d       0x32 obj/lf_samyrun.o
 .rodata.RunMod.str1.1
                0x000000000013adbf      0x110 obj/lf_samyrun.o
 .rodata.print_debug_level.str1.1
                0x000000000013aecf       0x3d obj/appmain.o
                                         0x4c (size before relaxing)
 .rodata.tearoff_hook.str1.1
                0x000000000013af0c       0x44 obj/appmain.o
 .rodata.print_stack_usage.str1.1
                0x000000000013af50       0x29 obj/appmain.o
 .rodata.ReadMem.str1.1
                0x000000000013af79       0x2c obj/appmain.o
 .rodata.StandAloneMode.str1.1
                0x000000000013afa5       0x28 obj/appmain.o
                                         0x29 (size before relaxing)
 .rodata.ListenReaderField.str1.1
                0x000000000013afcd       0x8f obj/appmain.o
                                         0x97 (size before relaxing)
 .rodata.AppMain.str1.1
                0x000000000013b05c      0x540 obj/appmain.o
                                        0x545 (size before relaxing)
 .rodata.kvsprintf.str1.1
                0x000000000013b59c       0x13 obj/printf.o
 .rodata.hex2ascii_data
                0x000000000013b5af       0x25 obj/printf.o
 .rodata.Dbhexdump.str1.1
                0x000000000013b5d4        0x9 obj/dbprint.o
                                          0xf (size before relaxing)
 .rodata.print_result.str1.1
                0x000000000013b5dd       0x79 obj/dbprint.o
 .rodata.FormatVersionInformation.str1.1
                0x000000000013b656       0x7b obj/commonutil.o
                                         0x7d (size before relaxing)
 .rodata.BUTTON_HELD.str1.1
                0x000000000013b6d1       0x32 obj/util.o
 .rodata.BigBuf_Clear_ext.str1.1
                0x000000000013b703       0x1a obj/BigBuf.o
 .rodata.BigBuf_print_status.str1.1
                0x000000000013b71d      0x10c obj/BigBuf.o
 .rodata.emlSet.str1.1
                0x000000000013b829       0x38 obj/BigBuf.o
 .rodata.tosend_stuffbit.str1.1
                0x000000000013b861       0x19 obj/BigBuf.o
 .rodata.SpinDelay.str1.1
                0x000000000013b87a       0x30 obj/ticks.o
 .rodata.HfSniff.str1.1
                0x000000000013b8aa       0x68 obj/hfsnoop.o
 .rodata.get_from_fpga_combined_stream.str1.1
                0x000000000013b912       0x15 obj/fpgaloader.o
 .rodata.FpgaDownloadAndGo.str1.1
                0x000000000013b927       0x1d obj/fpgaloader.o
 .rodata.Fpga_print_status.str1.1
                0x000000000013b944       0x39 obj/fpgaloader.o
 .rodata.switch_off.str1.1
                0x000000000013b97d        0xb obj/fpgaloader.o
 .rodata.bitparse_fixed_header
                0x000000000013b988        0xd obj/fpgaloader.o
 .rodata.StrLanguageCodes
                0x000000000013b995        0x4 obj/usb_cdc.o
 .rodata.StrMS_OSDescriptor
                0x000000000013b999       0x12 obj/usb_cdc.o
 .rodata.StrManufacturer
                0x000000000013b9ab       0x1a obj/usb_cdc.o
 .rodata.StrProduct
                0x000000000013b9c5       0x14 obj/usb_cdc.o
 .rodata.bosDescriptor
                0x000000000013b9d9        0xc obj/usb_cdc.o
 .rodata.cfgDescriptor
                0x000000000013b9e5       0x43 obj/usb_cdc.o
 .rodata.devDescriptor
                0x000000000013ba28       0x12 obj/usb_cdc.o
 *(fpga_all_bit.data)
 fpga_all_bit.data
                0x000000000013ba3a    0x17fc4 obj/fpga_all.o
                0x000000000013ba3a                _binary_obj_fpga_all_bit_z_start
                0x00000000001539fe                _binary_obj_fpga_all_bit_z_end
                0x0000000000153a00                . = ALIGN (0x8)
 *fill*         0x00000000001539fe        0x2 

.version_information
                0x0000000000153a00       0x61
 .version_information
                0x0000000000153a00       0x61 obj/version_pm3.o
                0x0000000000153a00                g_version_information

.ARM.exidx      0x0000000000153a64        0x8
 .ARM.exidx     0x0000000000153a64        0x8 /usr/lib/gcc/arm-none-eabi/10.3.1/libgcc.a(_udivmoddi4.o)

.rel.dyn        0x0000000000153a6c        0x0
 .rel.iplt      0x0000000000153a6c        0x0 obj/fpga_version_info.o

.data           0x0000000000200000     0x2788 load address 0x0000000000153a6c
 *(.data)
 *(.data.*)
 .data.T55xx_Timing
                0x0000000000200000       0x38 obj/lfops.o
 .data.config   0x0000000000200038        0xc obj/lfsampling.o
 .data.def_config
                0x0000000000200044        0xc obj/lfsampling.o
 .data.signalprop
                0x0000000000200050       0x14 obj/lfdemod.o
 .data.g_logging
                0x0000000000200064        0x1 obj/lfadc.o
                0x0000000000200064                g_logging
 *fill*         0x0000000000200065        0x3 
 .data.FLASHMEM_SPIBAUDRATE
                0x0000000000200068        0x4 obj/flashmem.o
 .data.auth_table_len
                0x000000000020006c        0x4 obj/hitag2.o
 .data.tag      0x0000000000200070       0x48 obj/hitag2.o
 .data.g_High   0x00000000002000b8        0x1 obj/em4x50.o
                0x00000000002000b8                g_High
 .data.g_Low    0x00000000002000b9        0x1 obj/em4x50.o
                0x00000000002000b9                g_Low
 .data.command_parity
                0x00000000002000ba        0x1 obj/em4x70.o
 .data.rPPS.6   0x00000000002000bb        0x3 obj/iso14443a.o
 .data.rRATS.13
                0x00000000002000be        0x8 obj/iso14443a.o
 .data.responses_init.4
                0x00000000002000c6       0xcc obj/iso14443a.o
 .data.wipeC    0x0000000000200192        0x1 obj/mifarecmd.o
 .data.wupC1    0x0000000000200193        0x1 obj/mifarecmd.o
 .data.wupC2    0x0000000000200194        0x1 obj/mifarecmd.o
 .data.rATQA_1k.26
                0x0000000000200195        0x2 obj/mifaresim.o
 .data.rATQA_2k.21
                0x0000000000200197        0x2 obj/mifaresim.o
 .data.rATQA_4k.18
                0x0000000000200199        0x2 obj/mifaresim.o
 .data.rATQA_Mini.23
                0x000000000020019b        0x2 obj/mifaresim.o
 .data.rRATS.19
                0x000000000020019d        0xe obj/mifaresim.o
 .data.rSAKuid.0
                0x00000000002001ab        0x3 obj/mifaresim.o
 .data.responses_init.1
                0x00000000002001ae      0x132 obj/mifaresim.o
 .data.iso14b_fwt
                0x00000000002002e0        0x1 obj/iso14443b.o
 *fill*         0x00000000002002e1        0x3 
 .data.iso14b_timeout
                0x00000000002002e4        0x4 obj/iso14443b.o
 .data.deselect_cmd
                0x00000000002002e8        0x3 obj/mifaredesfire.o
 .data.act_all.2
                0x00000000002002eb        0x1 obj/iclass.o
 .data.identify.1
                0x00000000002002ec        0x4 obj/iclass.o
 .data.read_conf.0
                0x00000000002002f0        0x4 obj/iclass.o
 .data.poll.1   0x00000000002002f4        0xa obj/felica.o
 *fill*         0x00000000002002fe        0x2 
 .data.g_dbglevel
                0x0000000000200300        0x4 obj/appmain.o
                0x0000000000200300                g_dbglevel
 .data.dma_16   0x0000000000200304        0x8 obj/BigBuf.o
 .data.dma_8    0x000000000020030c        0x8 obj/BigBuf.o
 .data.toSend   0x0000000000200314        0xc obj/BigBuf.o
 .data.tracing  0x0000000000200320        0x1 obj/BigBuf.o
 .data.StrSerialNumber
                0x0000000000200321       0x32 obj/usb_cdc.o
                0x0000000000200321                StrSerialNumber
 .data.btReceiveBank
                0x0000000000200353        0x1 obj/usb_cdc.o
 .data.line     0x0000000000200354        0x8 obj/usb_cdc.o
 .data.g_reply_with_crc_on_fpc
                0x000000000020035c        0x1 obj/cmd.o
                0x000000000020035c                g_reply_with_crc_on_fpc
 *(.ramfunc)
 *fill*         0x000000000020035d        0x3 
 .ramfunc       0x0000000000200360     0x1004 obj/iso15693.o
 .ramfunc       0x0000000000201364      0xb48 obj/iso14443a.o
                0x0000000000201364                MillerDecoding
                0x0000000000201784                ManchesterDecoding
                0x0000000000201ae4                SniffIso14443a
 .ramfunc       0x0000000000201eac      0x578 obj/iso14443b.o
 .ramfunc       0x0000000000202424      0x1c0 obj/BigBuf.o
                0x0000000000202424                LogTrace
                0x0000000000202558                LogTraceBits
 .ramfunc       0x00000000002025e4       0xa0 obj/ticks.o
                0x00000000002025e4                GetCountUS
                0x0000000000202610                GetTickCount
                0x000000000020261c                GetTickCountDelta
                0x0000000000202634                GetCountSspClk
                0x0000000000202660                GetCountSspClkDelta
 *fill*         0x0000000000202684        0x4 
 .ramfunc.__stub
                0x0000000000202688       0xc0 linker stubs
                0x0000000000202748                . = ALIGN (0x4)
                0x0000000000153a6c                __data_src_start__ = LOADADDR (.data)
                0x0000000000200000                __data_start__ = ADDR (.data)
                0x0000000000202788                __data_end__ = (__data_start__ + SIZEOF (.data))
                0x0000000000054068                __os_size__ = ((SIZEOF (.text) + SIZEOF (.data)) + SIZEOF (.rodata))

.igot.plt       0x0000000000202788        0x0 load address 0x00000000001561f4
 .igot.plt      0x0000000000202788        0x0 obj/fpga_version_info.o

.bss            0x0000000000202788     0x17bc
                0x0000000000202788                __bss_start__ = .
 *(.bss)
 *(.bss.*)
 .bss.tempbuf.0
                0x0000000000202788       0x19 obj/iso15693tools.o
 *fill*         0x00000000002027a1        0x1 
 .bss.FpgaSendQueueDelay
                0x00000000002027a2        0x2 obj/thinfilm.o
 .bss.forwardLink_data
                0x00000000002027a4       0x40 obj/lfops.o
 .bss.forward_ptr
                0x00000000002027e4        0x4 obj/lfops.o
 .bss.fwd_bit_sz
                0x00000000002027e8        0x1 obj/lfops.o
 *fill*         0x00000000002027e9        0x3 
 .bss.fwd_write_ptr
                0x00000000002027ec        0x4 obj/lfops.o
 .bss.prev_keep
                0x00000000002027f0        0x1 obj/lfops.o
 *fill*         0x00000000002027f1        0x3 
 .bss.data      0x00000000002027f4        0xc obj/lfsampling.o
 .bss.samples   0x0000000000202800       0x10 obj/lfsampling.o
 .bss.g_debugMode
                0x0000000000202810        0x1 obj/lfdemod.o
                0x0000000000202810                g_debugMode
 .bss.adc_avg   0x0000000000202811        0x1 obj/lfadc.o
 .bss.previous_adc_val
                0x0000000000202812        0x1 obj/lfadc.o
 .bss.rising_edge
                0x0000000000202813        0x1 obj/lfadc.o
 .bss.card      0x0000000000202814        0xc obj/legicrf.o
 .bss.last_frame_end
                0x0000000000202820        0x4 obj/legicrf.o
 .bss.legic_crc
                0x0000000000202824       0x20 obj/legicrf.o
 .bss.legic_mem
                0x0000000000202844        0x4 obj/legicrf.o
 .bss.card      0x0000000000202848        0xc obj/legicrfsim.o
 .bss.last_frame_end
                0x0000000000202854        0x4 obj/legicrfsim.o
 .bss.legic_crc
                0x0000000000202858       0x20 obj/legicrfsim.o
 .bss.legic_mem
                0x0000000000202878        0x4 obj/legicrfsim.o
 .bss.lfsr      0x000000000020287c        0x8 obj/legic_prng.o
 .bss.c         0x0000000000202884        0x4 obj/i2c.o
 .bss.NrAr      0x0000000000202888        0x8 obj/hitag2.o
 .bss.auth_table
                0x0000000000202890        0x4 obj/hitag2.o
 .bss.auth_table_pos
                0x0000000000202894        0x4 obj/hitag2.o
 .bss.bAuthenticating
                0x0000000000202898        0x1 obj/hitag2.o
 .bss.bCollision
                0x0000000000202899        0x1 obj/hitag2.o
 .bss.bCrypto   0x000000000020289a        0x1 obj/hitag2.o
 .bss.bPwd      0x000000000020289b        0x1 obj/hitag2.o
 .bss.bSelecting
                0x000000000020289c        0x1 obj/hitag2.o
 .bss.bSuccessful
                0x000000000020289d        0x1 obj/hitag2.o
 .bss.blocknr   0x000000000020289e        0x2 obj/hitag2.o
 .bss.byte_value
                0x00000000002028a0        0x4 obj/hitag2.o
 *fill*         0x00000000002028a4        0x4 
 .bss.cipher_state
                0x00000000002028a8        0x8 obj/hitag2.o
 .bss.key       0x00000000002028b0        0x8 obj/hitag2.o
 .bss.key_no    0x00000000002028b8        0x1 obj/hitag2.o
 .bss.logdata_0
                0x00000000002028b9        0x4 obj/hitag2.o
 .bss.logdata_1
                0x00000000002028bd        0x4 obj/hitag2.o
 .bss.nonce     0x00000000002028c1        0x4 obj/hitag2.o
 .bss.password  0x00000000002028c5        0x4 obj/hitag2.o
 .bss.writedata
                0x00000000002028c9        0x4 obj/hitag2.o
 .bss.writestate
                0x00000000002028cd        0x1 obj/hitag2.o
 *fill*         0x00000000002028ce        0x2 
 .bss.block_data_left
                0x00000000002028d0        0x4 obj/hitagS.o
 .bss.m         0x00000000002028d4        0x1 obj/hitagS.o
 .bss.page_to_be_written
                0x00000000002028d5        0x1 obj/hitagS.o
 .bss.pwdh0     0x00000000002028d6        0x1 obj/hitagS.o
 .bss.pwdl0     0x00000000002028d7        0x1 obj/hitagS.o
 .bss.pwdl1     0x00000000002028d8        0x1 obj/hitagS.o
 *fill*         0x00000000002028d9        0x3 
 .bss.sof_bits  0x00000000002028dc        0x4 obj/hitagS.o
 .bss.tag       0x00000000002028e0      0x130 obj/hitagS.o
 .bss.temp2     0x0000000000202a10        0x4 obj/hitagS.o
 .bss.temp_uid  0x0000000000202a14        0x4 obj/hitagS.o
 .bss.g_Login   0x0000000000202a18        0x1 obj/em4x50.o
                0x0000000000202a18                g_Login
 *fill*         0x0000000000202a19        0x3 
 .bss.g_Password
                0x0000000000202a1c        0x4 obj/em4x50.o
                0x0000000000202a1c                g_Password
 .bss.g_WritePasswordProcess
                0x0000000000202a20        0x1 obj/em4x50.o
                0x0000000000202a20                g_WritePasswordProcess
 .bss.tag       0x0000000000202a21       0x20 obj/em4x70.o
 .bss.RDV40_SPIFFS_MOUNT_STATUS
                0x0000000000202a41        0x1 obj/spiffs.o
 *fill*         0x0000000000202a42        0x2 
 .bss.fs        0x0000000000202a44       0x60 obj/spiffs.o
 *fill*         0x0000000000202aa4        0x4 
 .bss.spiffs_cache_buf
                0x0000000000202aa8      0x480 obj/spiffs.o
 .bss.spiffs_fds
                0x0000000000202f28       0x60 obj/spiffs.o
 .bss.spiffs_work_buf
                0x0000000000202f88      0x200 obj/spiffs.o
 .bss.encode_acc
                0x0000000000203188        0x1 obj/hfops.o
                0x0000000000203188                encode_acc
 .bss.encode_acc_bit_count
                0x0000000000203189        0x1 obj/hfops.o
                0x0000000000203189                encode_acc_bit_count
 *fill*         0x000000000020318a        0x2 
 .bss.encode_indx
                0x000000000020318c        0x4 obj/hfops.o
                0x000000000020318c                encode_indx
 .bss.Demod     0x0000000000203190       0x24 obj/iso14443a.o
 .bss.FpgaSendQueueDelay
                0x00000000002031b4        0x2 obj/iso14443a.o
 *fill*         0x00000000002031b6        0x2 
 .bss.LastProxToAirDuration
                0x00000000002031b8        0x4 obj/iso14443a.o
 .bss.LastTimeProxToAirStart
                0x00000000002031bc        0x4 obj/iso14443a.o
 .bss.NextTransferTime
                0x00000000002031c0        0x4 obj/iso14443a.o
 .bss.Uart      0x00000000002031c4       0x24 obj/iso14443a.o
 .bss.hf14aconfig
                0x00000000002031e8        0x5 obj/iso14443a.o
 .bss.iso14_pcb_blocknum
                0x00000000002031ed        0x1 obj/iso14443a.o
 *fill*         0x00000000002031ee        0x2 
 .bss.iso14a_timeout
                0x00000000002031f0        0x4 obj/iso14443a.o
 .bss.mf_nr_ar3.1
                0x00000000002031f4        0x1 obj/iso14443a.o
 *fill*         0x00000000002031f5        0x3 
 .bss.nt_attacked.2
                0x00000000002031f8        0x4 obj/iso14443a.o
 .bss.par_low.0
                0x00000000002031fc        0x1 obj/iso14443a.o
 .bss.rATQA.16  0x00000000002031fd        0x2 obj/iso14443a.o
 .bss.rPACK.5   0x00000000002031ff        0x4 obj/iso14443a.o
 .bss.rSAKc1.11
                0x0000000000203203        0x3 obj/iso14443a.o
 .bss.rSAKc2.9  0x0000000000203206        0x3 obj/iso14443a.o
 .bss.rSAKc3.7  0x0000000000203209        0x3 obj/iso14443a.o
 .bss.rSIGN.14  0x000000000020320c       0x22 obj/iso14443a.o
 .bss.rUIDc1.12
                0x000000000020322e        0x5 obj/iso14443a.o
 .bss.rUIDc2.10
                0x0000000000203233        0x5 obj/iso14443a.o
 .bss.rUIDc3.8  0x0000000000203238        0x5 obj/iso14443a.o
 .bss.rVERSION.15
                0x000000000020323d        0xa obj/iso14443a.o
 *fill*         0x0000000000203247        0x1 
 .bss.sync_cycles.3
                0x0000000000203248        0x4 obj/iso14443a.o
 .bss.cascade_levels.2
                0x000000000020324c        0x1 obj/mifarecmd.o
 *fill*         0x000000000020324d        0x3 
 .bss.cuid.3    0x0000000000203250        0x4 obj/mifarecmd.o
 .bss.delta_time.8
                0x0000000000203254        0x2 obj/mifarecmd.o
 .bss.dmax.10   0x0000000000203256        0x2 obj/mifarecmd.o
 .bss.dmin.9    0x0000000000203258        0x2 obj/mifarecmd.o
 .bss.dummy_answer
                0x000000000020325a        0x1 obj/mifarecmd.o
 .bss.found.5   0x000000000020325b       0x50 obj/mifarecmd.o
 .bss.foundkeys.4
                0x00000000002032ab        0x1 obj/mifarecmd.o
 .bss.k_sector.6
                0x00000000002032ac      0x3c0 obj/mifarecmd.o
 .bss.save_iso14a_timeout.0
                0x000000000020366c        0x4 obj/mifarecmd.o
 .bss.save_iso14a_timeout.1
                0x0000000000203670        0x4 obj/mifarecmd.o
 .bss.uid.7     0x0000000000203674        0x4 obj/mifarecmd.o
 .bss.apdu_lengths_replay
                0x0000000000203678        0x5 obj/epa.o
 .bss.apdu_replay_general_authenticate_pace_get_nonce
                0x000000000020367d        0x8 obj/epa.o
 .bss.apdu_replay_general_authenticate_pace_map_nonce
                0x0000000000203685       0x4b obj/epa.o
 .bss.apdu_replay_general_authenticate_pace_mutual_authenticate
                0x00000000002036d0       0x4b obj/epa.o
 .bss.apdu_replay_general_authenticate_pace_perform_key_agreement
                0x000000000020371b       0x12 obj/epa.o
 .bss.apdu_replay_mse_set_at_pace
                0x000000000020372d       0x29 obj/epa.o
 .bss.iso_type  0x0000000000203756        0x1 obj/epa.o
 .bss.rATQA.27  0x0000000000203757        0x2 obj/mifaresim.o
 .bss.rSAK.24   0x0000000000203759        0x3 obj/mifaresim.o
 .bss.rUIDBCC1.16
                0x000000000020375c        0x5 obj/mifaresim.o
 .bss.rUIDBCC1b1.10
                0x0000000000203761        0x1 obj/mifaresim.o
 .bss.rUIDBCC1b2.11
                0x0000000000203762        0x2 obj/mifaresim.o
 .bss.rUIDBCC1b3.12
                0x0000000000203764        0x3 obj/mifaresim.o
 .bss.rUIDBCC1b4.13
                0x0000000000203767        0x4 obj/mifaresim.o
 .bss.rUIDBCC2.15
                0x000000000020376b        0x5 obj/mifaresim.o
 .bss.rUIDBCC2b1.6
                0x0000000000203770        0x1 obj/mifaresim.o
 .bss.rUIDBCC2b2.7
                0x0000000000203771        0x2 obj/mifaresim.o
 .bss.rUIDBCC2b3.8
                0x0000000000203773        0x3 obj/mifaresim.o
 .bss.rUIDBCC2b4.9
                0x0000000000203776        0x4 obj/mifaresim.o
 .bss.rUIDBCC3.14
                0x000000000020377a        0x5 obj/mifaresim.o
 .bss.rUIDBCC3b1.2
                0x000000000020377f        0x1 obj/mifaresim.o
 .bss.rUIDBCC3b2.3
                0x0000000000203780        0x2 obj/mifaresim.o
 .bss.rUIDBCC3b3.4
                0x0000000000203782        0x3 obj/mifaresim.o
 .bss.rUIDBCC3b4.5
                0x0000000000203785        0x4 obj/mifaresim.o
 *fill*         0x0000000000203789        0x3 
 .bss.Demod     0x000000000020378c       0x20 obj/iso14443b.o
 .bss.Uart      0x00000000002037ac       0x18 obj/iso14443b.o
 .bss.iso14b_pcb_blocknum
                0x00000000002037c4        0x1 obj/iso14443b.o
 *fill*         0x00000000002037c5        0x3 
 .bss.ctx       0x00000000002037c8       0x80 obj/desfire_crypto.o
 .bss.ctx3      0x0000000000203848      0x180 obj/desfire_crypto.o
 .bss.pcb_blocknum
                0x00000000002039c8        0x1 obj/mifaredesfire.o
 .bss.skey      0x00000000002039c9       0x4a obj/mifaredesfire.o
 *fill*         0x0000000000203a13        0x1 
 .bss.ctx_enc   0x0000000000203a14       0x80 obj/optimized_ikeys.o
 .bss.ctx_dec   0x0000000000203a94       0x80 obj/optimized_elite.o
 .bss.ctx_enc   0x0000000000203b14       0x80 obj/optimized_elite.o
 .bss.crc_table
                0x0000000000203b94      0x200 obj/crc16.o
 .bss.crc_table_init
                0x0000000000203d94        0x1 obj/crc16.o
 .bss.current_crc_type
                0x0000000000203d95        0x1 obj/crc16.o
 *fill*         0x0000000000203d96        0x2 
 .bss.FelicaFrame
                0x0000000000203d98       0x18 obj/felica.o
 .bss.felica_lasttime_prox2air_start
                0x0000000000203db0        0x4 obj/felica.o
 .bss.felica_nexttransfertime
                0x0000000000203db4        0x4 obj/felica.o
 .bss.felica_timeout
                0x0000000000203db8        0x4 obj/felica.o
 .bss.frameSpace
                0x0000000000203dbc      0x108 obj/felica.o
 .bss.timeslot.0
                0x0000000000203ec4        0x1 obj/felica.o
 .bss.allow_send_wtx
                0x0000000000203ec5        0x1 obj/appmain.o
 *fill*         0x0000000000203ec6        0x2 
 .bss.button_status
                0x0000000000203ec8        0x4 obj/appmain.o
 .bss.g_hf_field_active
                0x0000000000203ecc        0x1 obj/appmain.o
                0x0000000000203ecc                g_hf_field_active
 *fill*         0x0000000000203ecd        0x1 
 .bss.g_tearoff_delay_us
                0x0000000000203ece        0x2 obj/appmain.o
                0x0000000000203ece                g_tearoff_delay_us
 .bss.g_tearoff_enabled
                0x0000000000203ed0        0x1 obj/appmain.o
                0x0000000000203ed0                g_tearoff_enabled
 .bss.g_trigger
                0x0000000000203ed1        0x1 obj/appmain.o
                0x0000000000203ed1                g_trigger
 *fill*         0x0000000000203ed2        0x2 
 .bss.last.0    0x0000000000203ed4        0x4 obj/string.o
 .bss.emulator_memory
                0x0000000000203ed8        0x4 obj/BigBuf.o
 .bss.s_bigbuf_hi
                0x0000000000203edc        0x4 obj/BigBuf.o
 .bss.s_bigbuf_size
                0x0000000000203ee0        0x4 obj/BigBuf.o
 .bss.trace_len
                0x0000000000203ee4        0x4 obj/BigBuf.o
 .bss.downloaded_bitstream
                0x0000000000203ee8        0x4 obj/fpgaloader.o
 .bss.fpga_image_ptr
                0x0000000000203eec        0x4 obj/fpgaloader.o
 .bss.uncompressed_bytes_cnt
                0x0000000000203ef0        0x4 obj/fpgaloader.o
 .bss.btConfiguration
                0x0000000000203ef4        0x1 obj/usb_cdc.o
 .bss.configured.0
                0x0000000000203ef5        0x1 obj/usb_cdc.o
 .bss.usb_read_ng_buffer
                0x0000000000203ef6       0x40 obj/usb_cdc.o
 *fill*         0x0000000000203f36        0x2 
 .bss.usb_read_ng_buflen
                0x0000000000203f38        0x4 obj/usb_cdc.o
 .bss.usb_read_ng_bufoff
                0x0000000000203f3c        0x4 obj/usb_cdc.o
 .bss.g_reply_via_fpc
                0x0000000000203f40        0x1 obj/cmd.o
                0x0000000000203f40                g_reply_via_fpc
 .bss.g_reply_via_usb
                0x0000000000203f41        0x1 obj/cmd.o
                0x0000000000203f41                g_reply_via_usb
 .bss.g_reply_with_crc_on_usb
                0x0000000000203f42        0x1 obj/cmd.o
                0x0000000000203f42                g_reply_with_crc_on_usb
                0x0000000000203f44                . = ALIGN (0x4)
 *fill*         0x0000000000203f43        0x1 
                0x0000000000203f44                __bss_end__ = .

.commonarea     0x000000000020ffe0        0xf
 *(.commonarea)
 .commonarea    0x000000000020ffe0        0xf obj/appmain.o
                0x000000000020ffe0                g_common_area
LOAD obj/version_pm3.o
LOAD obj/fpga_version_info.o
LOAD obj/fpga_all.o
LOAD obj/start.o
LOAD obj/iso15693.o
LOAD obj/iso15693tools.o
LOAD obj/thinfilm.o
LOAD obj/lfops.o
LOAD obj/lfsampling.o
LOAD obj/pcf7931.o
LOAD obj/lfdemod.o
LOAD obj/lfadc.o
LOAD obj/lz4.o
LOAD obj/legicrf.o
LOAD obj/legicrfsim.o
LOAD obj/legic_prng.o
LOAD obj/flashmem.o
LOAD obj/i2c.o
LOAD obj/hitag2_crypto.o
LOAD obj/hitag2.o
LOAD obj/hitagS.o
LOAD obj/em4x50.o
LOAD obj/em4x70.o
LOAD obj/spiffs.o
LOAD obj/spiffs_cache.o
LOAD obj/spiffs_check.o
LOAD obj/spiffs_gc.o
LOAD obj/spiffs_nucleus.o
LOAD obj/spiffs_hydrogen.o
LOAD obj/hfops.o
LOAD obj/iso14443a.o
LOAD obj/mifareutil.o
LOAD obj/mifarecmd.o
LOAD obj/epa.o
LOAD obj/mifaresim.o
LOAD obj/iso14443b.o
LOAD obj/crypto1.o
LOAD obj/des.o
LOAD obj/desfire_crypto.o
LOAD obj/mifaredesfire.o
LOAD obj/aes.o
LOAD obj/platform_util.o
LOAD obj/iclass.o
LOAD obj/optimized_cipherutils.o
LOAD obj/optimized_ikeys.o
LOAD obj/optimized_elite.o
LOAD obj/optimized_cipher.o
LOAD obj/crc.o
LOAD obj/crc16.o
LOAD obj/crc32.o
LOAD obj/felica.o
LOAD obj/lf_samyrun.o
LOAD obj/lfzx.o
LOAD obj/appmain.o
LOAD obj/printf.o
LOAD obj/dbprint.o
LOAD obj/commonutil.o
LOAD obj/util.o
LOAD obj/string.o
LOAD obj/BigBuf.o
LOAD obj/ticks.o
LOAD obj/clocks.o
LOAD obj/hfsnoop.o
LOAD obj/generator.o
LOAD obj/fpgaloader.o
LOAD obj/usb_cdc.o
LOAD obj/cmd.o
LOAD /usr/lib/gcc/arm-none-eabi/10.3.1/libgcc.a
OUTPUT(obj/fullimage.stage1.elf elf32-littlearm)
LOAD linker stubs

.comment        0x0000000000000000       0x33
 .comment       0x0000000000000000       0x33 obj/version_pm3.o
                                         0x34 (size before relaxing)
 .comment       0x0000000000000033       0x34 obj/fpga_version_info.o
 .comment       0x0000000000000033       0x34 obj/start.o
 .comment       0x0000000000000033       0x34 obj/iso15693.o
 .comment       0x0000000000000033       0x34 obj/iso15693tools.o
 .comment       0x0000000000000033       0x34 obj/thinfilm.o
 .comment       0x0000000000000033       0x34 obj/lfops.o
 .comment       0x0000000000000033       0x34 obj/lfsampling.o
 .comment       0x0000000000000033       0x34 obj/pcf7931.o
 .comment       0x0000000000000033       0x34 obj/lfdemod.o
 .comment       0x0000000000000033       0x34 obj/lfadc.o
 .comment       0x0000000000000033       0x34 obj/lz4.o
 .comment       0x0000000000000033       0x34 obj/legicrf.o
 .comment       0x0000000000000033       0x34 obj/legicrfsim.o
 .comment       0x0000000000000033       0x34 obj/legic_prng.o
 .comment       0x0000000000000033       0x34 obj/flashmem.o
 .comment       0x0000000000000033       0x34 obj/i2c.o
 .comment       0x0000000000000033       0x34 obj/hitag2_crypto.o
 .comment       0x0000000000000033       0x34 obj/hitag2.o
 .comment       0x0000000000000033       0x34 obj/hitagS.o
 .comment       0x0000000000000033       0x34 obj/em4x50.o
 .comment       0x0000000000000033       0x34 obj/em4x70.o
 .comment       0x0000000000000033       0x34 obj/spiffs.o
 .comment       0x0000000000000033       0x34 obj/spiffs_cache.o
 .comment       0x0000000000000033       0x34 obj/spiffs_check.o
 .comment       0x0000000000000033       0x34 obj/spiffs_gc.o
 .comment       0x0000000000000033       0x34 obj/spiffs_nucleus.o
 .comment       0x0000000000000033       0x34 obj/spiffs_hydrogen.o
 .comment       0x0000000000000033       0x34 obj/hfops.o
 .comment       0x0000000000000033       0x34 obj/iso14443a.o
 .comment       0x0000000000000033       0x34 obj/mifareutil.o
 .comment       0x0000000000000033       0x34 obj/mifarecmd.o
 .comment       0x0000000000000033       0x34 obj/epa.o
 .comment       0x0000000000000033       0x34 obj/mifaresim.o
 .comment       0x0000000000000033       0x34 obj/iso14443b.o
 .comment       0x0000000000000033       0x34 obj/crypto1.o
 .comment       0x0000000000000033       0x34 obj/des.o
 .comment       0x0000000000000033       0x34 obj/desfire_crypto.o
 .comment       0x0000000000000033       0x34 obj/mifaredesfire.o
 .comment       0x0000000000000033       0x34 obj/aes.o
 .comment       0x0000000000000033       0x34 obj/platform_util.o
 .comment       0x0000000000000033       0x34 obj/iclass.o
 .comment       0x0000000000000033       0x34 obj/optimized_cipherutils.o
 .comment       0x0000000000000033       0x34 obj/optimized_ikeys.o
 .comment       0x0000000000000033       0x34 obj/optimized_elite.o
 .comment       0x0000000000000033       0x34 obj/optimized_cipher.o
 .comment       0x0000000000000033       0x34 obj/crc.o
 .comment       0x0000000000000033       0x34 obj/crc16.o
 .comment       0x0000000000000033       0x34 obj/felica.o
 .comment       0x0000000000000033       0x34 obj/lf_samyrun.o
 .comment       0x0000000000000033       0x34 obj/lfzx.o
 .comment       0x0000000000000033       0x34 obj/appmain.o
 .comment       0x0000000000000033       0x34 obj/printf.o
 .comment       0x0000000000000033       0x34 obj/dbprint.o
 .comment       0x0000000000000033       0x34 obj/commonutil.o
 .comment       0x0000000000000033       0x34 obj/util.o
 .comment       0x0000000000000033       0x34 obj/string.o
 .comment       0x0000000000000033       0x34 obj/BigBuf.o
 .comment       0x0000000000000033       0x34 obj/ticks.o
 .comment       0x0000000000000033       0x34 obj/clocks.o
 .comment       0x0000000000000033       0x34 obj/hfsnoop.o
 .comment       0x0000000000000033       0x34 obj/generator.o
 .comment       0x0000000000000033       0x34 obj/fpgaloader.o
 .comment       0x0000000000000033       0x34 obj/usb_cdc.o
 .comment       0x0000000000000033       0x34 obj/cmd.o
 .comment       0x0000000000000033       0x34 /usr/lib/gcc/arm-none-eabi/10.3.1/libgcc.a(_muldi3.o)
 .comment       0x0000000000000033       0x34 /usr/lib/gcc/arm-none-eabi/10.3.1/libgcc.a(_paritysi2.o)
 .comment       0x0000000000000033       0x34 /usr/lib/gcc/arm-none-eabi/10.3.1/libgcc.a(_udivmoddi4.o)

.ARM.attributes
                0x0000000000000000       0x30
 .ARM.attributes
                0x0000000000000000       0x30 obj/version_pm3.o
 .ARM.attributes
                0x0000000000000030       0x30 obj/fpga_version_info.o
 .ARM.attributes
                0x0000000000000060       0x2a obj/start.o
 .ARM.attributes
                0x000000000000008a       0x2a obj/iso15693.o
 .ARM.attributes
                0x00000000000000b4       0x2a obj/iso15693tools.o
 .ARM.attributes
                0x00000000000000de       0x2a obj/thinfilm.o
 .ARM.attributes
                0x0000000000000108       0x2a obj/lfops.o
 .ARM.attributes
                0x0000000000000132       0x2a obj/lfsampling.o
 .ARM.attributes
                0x000000000000015c       0x2a obj/pcf7931.o
 .ARM.attributes
                0x0000000000000186       0x2a obj/lfdemod.o
 .ARM.attributes
                0x00000000000001b0       0x2a obj/lfadc.o
 .ARM.attributes
                0x00000000000001da       0x2a obj/lz4.o
 .ARM.attributes
                0x0000000000000204       0x2a obj/legicrf.o
 .ARM.attributes
                0x000000000000022e       0x2a obj/legicrfsim.o
 .ARM.attributes
                0x0000000000000258       0x2a obj/legic_prng.o
 .ARM.attributes
                0x0000000000000282       0x2a obj/flashmem.o
 .ARM.attributes
                0x00000000000002ac       0x2a obj/i2c.o
 .ARM.attributes
                0x00000000000002d6       0x2a obj/hitag2_crypto.o
 .ARM.attributes
                0x0000000000000300       0x2a obj/hitag2.o
 .ARM.attributes
                0x000000000000032a       0x2a obj/hitagS.o
 .ARM.attributes
                0x0000000000000354       0x2a obj/em4x50.o
 .ARM.attributes
                0x000000000000037e       0x2a obj/em4x70.o
 .ARM.attributes
                0x00000000000003a8       0x2a obj/spiffs.o
 .ARM.attributes
                0x00000000000003d2       0x2a obj/spiffs_cache.o
 .ARM.attributes
                0x00000000000003fc       0x2a obj/spiffs_check.o
 .ARM.attributes
                0x0000000000000426       0x2a obj/spiffs_gc.o
 .ARM.attributes
                0x0000000000000450       0x2a obj/spiffs_nucleus.o
 .ARM.attributes
                0x000000000000047a       0x2a obj/spiffs_hydrogen.o
 .ARM.attributes
                0x00000000000004a4       0x2a obj/hfops.o
 .ARM.attributes
                0x00000000000004ce       0x2a obj/iso14443a.o
 .ARM.attributes
                0x00000000000004f8       0x2a obj/mifareutil.o
 .ARM.attributes
                0x0000000000000522       0x2a obj/mifarecmd.o
 .ARM.attributes
                0x000000000000054c       0x2a obj/epa.o
 .ARM.attributes
                0x0000000000000576       0x2a obj/mifaresim.o
 .ARM.attributes
                0x00000000000005a0       0x2a obj/iso14443b.o
 .ARM.attributes
                0x00000000000005ca       0x2a obj/crypto1.o
 .ARM.attributes
                0x00000000000005f4       0x2a obj/des.o
 .ARM.attributes
                0x000000000000061e       0x2a obj/desfire_crypto.o
 .ARM.attributes
                0x0000000000000648       0x2a obj/mifaredesfire.o
 .ARM.attributes
                0x0000000000000672       0x2a obj/aes.o
 .ARM.attributes
                0x000000000000069c       0x2a obj/platform_util.o
 .ARM.attributes
                0x00000000000006c6       0x2a obj/iclass.o
 .ARM.attributes
                0x00000000000006f0       0x2a obj/optimized_cipherutils.o
 .ARM.attributes
                0x000000000000071a       0x2a obj/optimized_ikeys.o
 .ARM.attributes
                0x0000000000000744       0x2a obj/optimized_elite.o
 .ARM.attributes
                0x000000000000076e       0x2a obj/optimized_cipher.o
 .ARM.attributes
                0x0000000000000798       0x2a obj/crc.o
 .ARM.attributes
                0x00000000000007c2       0x2a obj/crc16.o
 .ARM.attributes
                0x00000000000007ec       0x2a obj/felica.o
 .ARM.attributes
                0x0000000000000816       0x2a obj/lf_samyrun.o
 .ARM.attributes
                0x0000000000000840       0x2a obj/lfzx.o
 .ARM.attributes
                0x000000000000086a       0x2a obj/appmain.o
 .ARM.attributes
                0x0000000000000894       0x2a obj/printf.o
 .ARM.attributes
                0x00000000000008be       0x2a obj/dbprint.o
 .ARM.attributes
                0x00000000000008e8       0x2a obj/commonutil.o
 .ARM.attributes
                0x0000000000000912       0x2a obj/util.o
 .ARM.attributes
                0x000000000000093c       0x2a obj/string.o
 .ARM.attributes
                0x0000000000000966       0x2a obj/BigBuf.o
 .ARM.attributes
                0x0000000000000990       0x2a obj/ticks.o
 .ARM.attributes
                0x00000000000009ba       0x2a obj/clocks.o
 .ARM.attributes
                0x00000000000009e4       0x2a obj/hfsnoop.o
 .ARM.attributes
                0x0000000000000a0e       0x2a obj/generator.o
 .ARM.attributes
                0x0000000000000a38       0x2a obj/fpgaloader.o
 .ARM.attributes
                0x0000000000000a62       0x2a obj/usb_cdc.o
 .ARM.attributes
                0x0000000000000a8c       0x2a obj/cmd.o
 .ARM.attributes
                0x0000000000000ab6       0x1c /usr/lib/gcc/arm-none-eabi/10.3.1/libgcc.a(_thumb1_case_sqi.o)
 .ARM.attributes
                0x0000000000000ad2       0x1c /usr/lib/gcc/arm-none-eabi/10.3.1/libgcc.a(_thumb1_case_uqi.o)
 .ARM.attributes
                0x0000000000000aee       0x1c /usr/lib/gcc/arm-none-eabi/10.3.1/libgcc.a(_thumb1_case_shi.o)
 .ARM.attributes
                0x0000000000000b0a       0x1c /usr/lib/gcc/arm-none-eabi/10.3.1/libgcc.a(_thumb1_case_uhi.o)
 .ARM.attributes
                0x0000000000000b26       0x1c /usr/lib/gcc/arm-none-eabi/10.3.1/libgcc.a(_thumb1_case_si.o)
 .ARM.attributes
                0x0000000000000b42       0x1c /usr/lib/gcc/arm-none-eabi/10.3.1/libgcc.a(_udivsi3.o)
 .ARM.attributes
                0x0000000000000b5e       0x1c /usr/lib/gcc/arm-none-eabi/10.3.1/libgcc.a(_divsi3.o)
 .ARM.attributes
                0x0000000000000b7a       0x1c /usr/lib/gcc/arm-none-eabi/10.3.1/libgcc.a(_dvmd_tls.o)
 .ARM.attributes
                0x0000000000000b96       0x1c /usr/lib/gcc/arm-none-eabi/10.3.1/libgcc.a(_lshrdi3.o)
 .ARM.attributes
                0x0000000000000bb2       0x1c /usr/lib/gcc/arm-none-eabi/10.3.1/libgcc.a(_ashldi3.o)
 .ARM.attributes
                0x0000000000000bce       0x1c /usr/lib/gcc/arm-none-eabi/10.3.1/libgcc.a(_aeabi_uldivmod.o)
 .ARM.attributes
                0x0000000000000bea       0x2a /usr/lib/gcc/arm-none-eabi/10.3.1/libgcc.a(_muldi3.o)
 .ARM.attributes
                0x0000000000000c14       0x2a /usr/lib/gcc/arm-none-eabi/10.3.1/libgcc.a(_paritysi2.o)
 .ARM.attributes
                0x0000000000000c3e       0x2a /usr/lib/gcc/arm-none-eabi/10.3.1/libgcc.a(_udivmoddi4.o)
 .ARM.attributes
                0x0000000000000c68       0x1c /usr/lib/gcc/arm-none-eabi/10.3.1/libgcc.a(_clzdi2.o)
 .ARM.attributes
                0x0000000000000c84       0x1c /usr/lib/gcc/arm-none-eabi/10.3.1/libgcc.a(_clzsi2.o)

.debug_line     0x0000000000000000      0x7a7
 .debug_line    0x0000000000000000       0x5f /usr/lib/gcc/arm-none-eabi/10.3.1/libgcc.a(_thumb1_case_sqi.o)
 .debug_line    0x000000000000005f       0x5f /usr/lib/gcc/arm-none-eabi/10.3.1/libgcc.a(_thumb1_case_uqi.o)
 .debug_line    0x00000000000000be       0x60 /usr/lib/gcc/arm-none-eabi/10.3.1/libgcc.a(_thumb1_case_shi.o)
 .debug_line    0x000000000000011e       0x60 /usr/lib/gcc/arm-none-eabi/10.3.1/libgcc.a(_thumb1_case_uhi.o)
 .debug_line    0x000000000000017e       0x61 /usr/lib/gcc/arm-none-eabi/10.3.1/libgcc.a(_thumb1_case_si.o)
 .debug_line    0x00000000000001df       0x74 /usr/lib/gcc/arm-none-eabi/10.3.1/libgcc.a(_udivsi3.o)
 .debug_line    0x0000000000000253       0x80 /usr/lib/gcc/arm-none-eabi/10.3.1/libgcc.a(_divsi3.o)
 .debug_line    0x00000000000002d3       0x57 /usr/lib/gcc/arm-none-eabi/10.3.1/libgcc.a(_dvmd_tls.o)
 .debug_line    0x000000000000032a       0x5d /usr/lib/gcc/arm-none-eabi/10.3.1/libgcc.a(_lshrdi3.o)
 .debug_line    0x0000000000000387       0x5d /usr/lib/gcc/arm-none-eabi/10.3.1/libgcc.a(_ashldi3.o)
 .debug_line    0x00000000000003e4       0x57 /usr/lib/gcc/arm-none-eabi/10.3.1/libgcc.a(_aeabi_uldivmod.o)
 .debug_line    0x000000000000043b       0x9b /usr/lib/gcc/arm-none-eabi/10.3.1/libgcc.a(_muldi3.o)
 .debug_line    0x00000000000004d6       0x9b /usr/lib/gcc/arm-none-eabi/10.3.1/libgcc.a(_paritysi2.o)
 .debug_line    0x0000000000000571      0x171 /usr/lib/gcc/arm-none-eabi/10.3.1/libgcc.a(_udivmoddi4.o)
 .debug_line    0x00000000000006e2       0x61 /usr/lib/gcc/arm-none-eabi/10.3.1/libgcc.a(_clzdi2.o)
 .debug_line    0x0000000000000743       0x64 /usr/lib/gcc/arm-none-eabi/10.3.1/libgcc.a(_clzsi2.o)

.debug_info     0x0000000000000000      0xbf1
 .debug_info    0x0000000000000000       0x26 /usr/lib/gcc/arm-none-eabi/10.3.1/libgcc.a(_thumb1_case_sqi.o)
 .debug_info    0x0000000000000026       0x26 /usr/lib/gcc/arm-none-eabi/10.3.1/libgcc.a(_thumb1_case_uqi.o)
 .debug_info    0x000000000000004c       0x26 /usr/lib/gcc/arm-none-eabi/10.3.1/libgcc.a(_thumb1_case_shi.o)
 .debug_info    0x0000000000000072       0x26 /usr/lib/gcc/arm-none-eabi/10.3.1/libgcc.a(_thumb1_case_uhi.o)
 .debug_info    0x0000000000000098       0x26 /usr/lib/gcc/arm-none-eabi/10.3.1/libgcc.a(_thumb1_case_si.o)
 .debug_info    0x00000000000000be       0x26 /usr/lib/gcc/arm-none-eabi/10.3.1/libgcc.a(_udivsi3.o)
 .debug_info    0x00000000000000e4       0x26 /usr/lib/gcc/arm-none-eabi/10.3.1/libgcc.a(_divsi3.o)
 .debug_info    0x000000000000010a       0x26 /usr/lib/gcc/arm-none-eabi/10.3.1/libgcc.a(_dvmd_tls.o)
 .debug_info    0x0000000000000130       0x26 /usr/lib/gcc/arm-none-eabi/10.3.1/libgcc.a(_lshrdi3.o)
 .debug_info    0x0000000000000156       0x26 /usr/lib/gcc/arm-none-eabi/10.3.1/libgcc.a(_ashldi3.o)
 .debug_info    0x000000000000017c       0x26 /usr/lib/gcc/arm-none-eabi/10.3.1/libgcc.a(_aeabi_uldivmod.o)
 .debug_info    0x00000000000001a2      0x3a1 /usr/lib/gcc/arm-none-eabi/10.3.1/libgcc.a(_muldi3.o)
 .debug_info    0x0000000000000543      0x2c3 /usr/lib/gcc/arm-none-eabi/10.3.1/libgcc.a(_paritysi2.o)
 .debug_info    0x0000000000000806      0x39f /usr/lib/gcc/arm-none-eabi/10.3.1/libgcc.a(_udivmoddi4.o)
 .debug_info    0x0000000000000ba5       0x26 /usr/lib/gcc/arm-none-eabi/10.3.1/libgcc.a(_clzdi2.o)
 .debug_info    0x0000000000000bcb       0x26 /usr/lib/gcc/arm-none-eabi/10.3.1/libgcc.a(_clzsi2.o)

.debug_abbrev   0x0000000000000000      0x439
 .debug_abbrev  0x0000000000000000       0x14 /usr/lib/gcc/arm-none-eabi/10.3.1/libgcc.a(_thumb1_case_sqi.o)
 .debug_abbrev  0x0000000000000014       0x14 /usr/lib/gcc/arm-none-eabi/10.3.1/libgcc.a(_thumb1_case_uqi.o)
 .debug_abbrev  0x0000000000000028       0x14 /usr/lib/gcc/arm-none-eabi/10.3.1/libgcc.a(_thumb1_case_shi.o)
 .debug_abbrev  0x000000000000003c       0x14 /usr/lib/gcc/arm-none-eabi/10.3.1/libgcc.a(_thumb1_case_uhi.o)
 .debug_abbrev  0x0000000000000050       0x14 /usr/lib/gcc/arm-none-eabi/10.3.1/libgcc.a(_thumb1_case_si.o)
 .debug_abbrev  0x0000000000000064       0x14 /usr/lib/gcc/arm-none-eabi/10.3.1/libgcc.a(_udivsi3.o)
 .debug_abbrev  0x0000000000000078       0x14 /usr/lib/gcc/arm-none-eabi/10.3.1/libgcc.a(_divsi3.o)
 .debug_abbrev  0x000000000000008c       0x14 /usr/lib/gcc/arm-none-eabi/10.3.1/libgcc.a(_dvmd_tls.o)
 .debug_abbrev  0x00000000000000a0       0x14 /usr/lib/gcc/arm-none-eabi/10.3.1/libgcc.a(_lshrdi3.o)
 .debug_abbrev  0x00000000000000b4       0x14 /usr/lib/gcc/arm-none-eabi/10.3.1/libgcc.a(_ashldi3.o)
 .debug_abbrev  0x00000000000000c8       0x14 /usr/lib/gcc/arm-none-eabi/10.3.1/libgcc.a(_aeabi_uldivmod.o)
 .debug_abbrev  0x00000000000000dc      0x147 /usr/lib/gcc/arm-none-eabi/10.3.1/libgcc.a(_muldi3.o)
 .debug_abbrev  0x0000000000000223       0xd3 /usr/lib/gcc/arm-none-eabi/10.3.1/libgcc.a(_paritysi2.o)
 .debug_abbrev  0x00000000000002f6      0x11b /usr/lib/gcc/arm-none-eabi/10.3.1/libgcc.a(_udivmoddi4.o)
 .debug_abbrev  0x0000000000000411       0x14 /usr/lib/gcc/arm-none-eabi/10.3.1/libgcc.a(_clzdi2.o)
 .debug_abbrev  0x0000000000000425       0x14 /usr/lib/gcc/arm-none-eabi/10.3.1/libgcc.a(_clzsi2.o)

.debug_aranges  0x0000000000000000      0x200
 .debug_aranges
                0x0000000000000000       0x20 /usr/lib/gcc/arm-none-eabi/10.3.1/libgcc.a(_thumb1_case_sqi.o)
 .debug_aranges
                0x0000000000000020       0x20 /usr/lib/gcc/arm-none-eabi/10.3.1/libgcc.a(_thumb1_case_uqi.o)
 .debug_aranges
                0x0000000000000040       0x20 /usr/lib/gcc/arm-none-eabi/10.3.1/libgcc.a(_thumb1_case_shi.o)
 .debug_aranges
                0x0000000000000060       0x20 /usr/lib/gcc/arm-none-eabi/10.3.1/libgcc.a(_thumb1_case_uhi.o)
 .debug_aranges
                0x0000000000000080       0x20 /usr/lib/gcc/arm-none-eabi/10.3.1/libgcc.a(_thumb1_case_si.o)
 .debug_aranges
                0x00000000000000a0       0x20 /usr/lib/gcc/arm-none-eabi/10.3.1/libgcc.a(_udivsi3.o)
 .debug_aranges
                0x00000000000000c0       0x20 /usr/lib/gcc/arm-none-eabi/10.3.1/libgcc.a(_divsi3.o)
 .debug_aranges
                0x00000000000000e0       0x20 /usr/lib/gcc/arm-none-eabi/10.3.1/libgcc.a(_dvmd_tls.o)
 .debug_aranges
                0x0000000000000100       0x20 /usr/lib/gcc/arm-none-eabi/10.3.1/libgcc.a(_lshrdi3.o)
 .debug_aranges
                0x0000000000000120       0x20 /usr/lib/gcc/arm-none-eabi/10.3.1/libgcc.a(_ashldi3.o)
 .debug_aranges
                0x0000000000000140       0x20 /usr/lib/gcc/arm-none-eabi/10.3.1/libgcc.a(_aeabi_uldivmod.o)
 .debug_aranges
                0x0000000000000160       0x20 /usr/lib/gcc/arm-none-eabi/10.3.1/libgcc.a(_muldi3.o)
 .debug_aranges
                0x0000000000000180       0x20 /usr/lib/gcc/arm-none-eabi/10.3.1/libgcc.a(_paritysi2.o)
 .debug_aranges
                0x00000000000001a0       0x20 /usr/lib/gcc/arm-none-eabi/10.3.1/libgcc.a(_udivmoddi4.o)
 .debug_aranges
                0x00000000000001c0       0x20 /usr/lib/gcc/arm-none-eabi/10.3.1/libgcc.a(_clzdi2.o)
 .debug_aranges
                0x00000000000001e0       0x20 /usr/lib/gcc/arm-none-eabi/10.3.1/libgcc.a(_clzsi2.o)

.debug_str      0x0000000000000000      0x701
 .debug_str     0x0000000000000000       0x8d /usr/lib/gcc/arm-none-eabi/10.3.1/libgcc.a(_thumb1_case_sqi.o)
 .debug_str     0x000000000000008d       0x8d /usr/lib/gcc/arm-none-eabi/10.3.1/libgcc.a(_thumb1_case_uqi.o)
 .debug_str     0x000000000000008d       0x8d /usr/lib/gcc/arm-none-eabi/10.3.1/libgcc.a(_thumb1_case_shi.o)
 .debug_str     0x000000000000008d       0x8d /usr/lib/gcc/arm-none-eabi/10.3.1/libgcc.a(_thumb1_case_uhi.o)
 .debug_str     0x000000000000008d       0x8d /usr/lib/gcc/arm-none-eabi/10.3.1/libgcc.a(_thumb1_case_si.o)
 .debug_str     0x000000000000008d       0x8d /usr/lib/gcc/arm-none-eabi/10.3.1/libgcc.a(_udivsi3.o)
 .debug_str     0x000000000000008d       0x8d /usr/lib/gcc/arm-none-eabi/10.3.1/libgcc.a(_divsi3.o)
 .debug_str     0x000000000000008d       0x8d /usr/lib/gcc/arm-none-eabi/10.3.1/libgcc.a(_dvmd_tls.o)
 .debug_str     0x000000000000008d       0x8d /usr/lib/gcc/arm-none-eabi/10.3.1/libgcc.a(_lshrdi3.o)
 .debug_str     0x000000000000008d       0x8d /usr/lib/gcc/arm-none-eabi/10.3.1/libgcc.a(_ashldi3.o)
 .debug_str     0x000000000000008d       0x23 /usr/lib/gcc/arm-none-eabi/10.3.1/libgcc.a(_aeabi_uldivmod.o)
                                         0x89 (size before relaxing)
 .debug_str     0x00000000000000b0      0x570 /usr/lib/gcc/arm-none-eabi/10.3.1/libgcc.a(_muldi3.o)
                                        0x603 (size before relaxing)
 .debug_str     0x0000000000000620        0xc /usr/lib/gcc/arm-none-eabi/10.3.1/libgcc.a(_paritysi2.o)
                                        0x5d5 (size before relaxing)
 .debug_str     0x000000000000062c       0xd5 /usr/lib/gcc/arm-none-eabi/10.3.1/libgcc.a(_udivmoddi4.o)
                                        0x5f4 (size before relaxing)
 .debug_str     0x0000000000000701       0x8d /usr/lib/gcc/arm-none-eabi/10.3.1/libgcc.a(_clzdi2.o)
 .debug_str     0x0000000000000701       0x8d /usr/lib/gcc/arm-none-eabi/10.3.1/libgcc.a(_clzsi2.o)

.debug_frame    0x0000000000000000       0xf8
 .debug_frame   0x0000000000000000       0x20 /usr/lib/gcc/arm-none-eabi/10.3.1/libgcc.a(_udivsi3.o)
 .debug_frame   0x0000000000000020       0x20 /usr/lib/gcc/arm-none-eabi/10.3.1/libgcc.a(_divsi3.o)
 .debug_frame   0x0000000000000040       0x2c /usr/lib/gcc/arm-none-eabi/10.3.1/libgcc.a(_aeabi_uldivmod.o)
 .debug_frame   0x000000000000006c       0x2c /usr/lib/gcc/arm-none-eabi/10.3.1/libgcc.a(_muldi3.o)
 .debug_frame   0x0000000000000098       0x20 /usr/lib/gcc/arm-none-eabi/10.3.1/libgcc.a(_paritysi2.o)
 .debug_frame   0x00000000000000b8       0x40 /usr/lib/gcc/arm-none-eabi/10.3.1/libgcc.a(_udivmoddi4.o)

.debug_loc      0x0000000000000000      0x28f
 .debug_loc     0x0000000000000000       0x2c /usr/lib/gcc/arm-none-eabi/10.3.1/libgcc.a(_muldi3.o)
 .debug_loc     0x000000000000002c       0x7c /usr/lib/gcc/arm-none-eabi/10.3.1/libgcc.a(_paritysi2.o)
 .debug_loc     0x00000000000000a8      0x1e7 /usr/lib/gcc/arm-none-eabi/10.3.1/libgcc.a(_udivmoddi4.o)

.debug_ranges   0x0000000000000000       0x20
 .debug_ranges  0x0000000000000000       0x20 /usr/lib/gcc/arm-none-eabi/10.3.1/libgcc.a(_muldi3.o)
